ARM GAS  /var/folders/wr/bk9txnv930v5t7d_4s42nmkm0000gq/T//ccJtZ1lc.s 			page 1


   1              		.cpu cortex-m7
   2              		.eabi_attribute 28, 1
   3              		.eabi_attribute 20, 1
   4              		.eabi_attribute 21, 1
   5              		.eabi_attribute 23, 3
   6              		.eabi_attribute 24, 1
   7              		.eabi_attribute 25, 1
   8              		.eabi_attribute 26, 1
   9              		.eabi_attribute 30, 2
  10              		.eabi_attribute 34, 1
  11              		.eabi_attribute 18, 4
  12              		.file	"semester_project.cpp"
  13              		.text
  14              	.Ltext0:
  15              		.cfi_sections	.debug_frame
  16              		.section	.text._ZN5daisy6SwitchD2Ev,"axG",%progbits,_ZN5daisy6SwitchD5Ev,comdat
  17              		.align	1
  18              		.p2align 2,,3
  19              		.weak	_ZN5daisy6SwitchD2Ev
  20              		.arch armv7e-m
  21              		.syntax unified
  22              		.thumb
  23              		.thumb_func
  24              		.fpu fpv5-d16
  26              	_ZN5daisy6SwitchD2Ev:
  27              	.LVL0:
  28              	.LFB2511:
  29              		.file 1 "../../libdaisy//src/hid/switch.h"
   1:../../libdaisy//src/hid/switch.h **** #pragma once
   2:../../libdaisy//src/hid/switch.h **** #ifndef DSY_SWITCH_H
   3:../../libdaisy//src/hid/switch.h **** #define DSY_SWITCH_H
   4:../../libdaisy//src/hid/switch.h **** #include "daisy_core.h"
   5:../../libdaisy//src/hid/switch.h **** #include "per/gpio.h"
   6:../../libdaisy//src/hid/switch.h **** 
   7:../../libdaisy//src/hid/switch.h **** namespace daisy
   8:../../libdaisy//src/hid/switch.h **** {
   9:../../libdaisy//src/hid/switch.h **** /** 
  10:../../libdaisy//src/hid/switch.h ****     Generic Class for handling momentary/latching switches \n 
  11:../../libdaisy//src/hid/switch.h ****     Inspired/influenced by Mutable Instruments (pichenettes) Switch classes
  12:../../libdaisy//src/hid/switch.h ****     @author Stephen Hensley
  13:../../libdaisy//src/hid/switch.h ****     @date December 2019
  14:../../libdaisy//src/hid/switch.h ****     @ingroup controls
  15:../../libdaisy//src/hid/switch.h **** */
  16:../../libdaisy//src/hid/switch.h **** class Switch
  17:../../libdaisy//src/hid/switch.h **** {
  18:../../libdaisy//src/hid/switch.h ****   public:
  19:../../libdaisy//src/hid/switch.h ****     /** Specifies the expected behavior of the switch */
  20:../../libdaisy//src/hid/switch.h ****     enum Type
  21:../../libdaisy//src/hid/switch.h ****     {
  22:../../libdaisy//src/hid/switch.h ****         TYPE_TOGGLE,    /**< & */
  23:../../libdaisy//src/hid/switch.h ****         TYPE_MOMENTARY, /**< & */
  24:../../libdaisy//src/hid/switch.h ****     };
  25:../../libdaisy//src/hid/switch.h ****     /** Specifies whether the pressed is HIGH or LOW. */
  26:../../libdaisy//src/hid/switch.h ****     enum Polarity
  27:../../libdaisy//src/hid/switch.h ****     {
  28:../../libdaisy//src/hid/switch.h ****         POLARITY_NORMAL,   /**< & */
  29:../../libdaisy//src/hid/switch.h ****         POLARITY_INVERTED, /**< & */
ARM GAS  /var/folders/wr/bk9txnv930v5t7d_4s42nmkm0000gq/T//ccJtZ1lc.s 			page 2


  30:../../libdaisy//src/hid/switch.h ****     };
  31:../../libdaisy//src/hid/switch.h **** 
  32:../../libdaisy//src/hid/switch.h ****     /** Specifies whether to use built-in Pull Up/Down resistors to hold button at a given state wh
  33:../../libdaisy//src/hid/switch.h ****     enum Pull
  34:../../libdaisy//src/hid/switch.h ****     {
  35:../../libdaisy//src/hid/switch.h ****         PULL_UP,   /**< & */
  36:../../libdaisy//src/hid/switch.h ****         PULL_DOWN, /**< & */
  37:../../libdaisy//src/hid/switch.h ****         PULL_NONE, /**< & */
  38:../../libdaisy//src/hid/switch.h ****     };
  39:../../libdaisy//src/hid/switch.h **** 
  40:../../libdaisy//src/hid/switch.h ****     Switch() {}
  41:../../libdaisy//src/hid/switch.h ****     ~Switch() {}
  30              		.loc 1 41 5 view -0
  31              		.cfi_startproc
  32              		@ args = 0, pretend = 0, frame = 0
  33              		@ frame_needed = 0, uses_anonymous_args = 0
  34              		@ link register save eliminated.
  35              		.loc 1 41 16 is_stmt 0 view .LVU1
  36 0000 7047     		bx	lr
  37              		.cfi_endproc
  38              	.LFE2511:
  40              		.weak	_ZN5daisy6SwitchD1Ev
  41              		.thumb_set _ZN5daisy6SwitchD1Ev,_ZN5daisy6SwitchD2Ev
  42 0002 00BF     		.section	.text._ZN5daisy7EncoderD2Ev,"axG",%progbits,_ZN5daisy7EncoderD5Ev,comdat
  43              		.align	1
  44              		.p2align 2,,3
  45              		.weak	_ZN5daisy7EncoderD2Ev
  46              		.syntax unified
  47              		.thumb
  48              		.thumb_func
  49              		.fpu fpv5-d16
  51              	_ZN5daisy7EncoderD2Ev:
  52              	.LVL1:
  53              	.LFB2523:
  54              		.file 2 "../../libdaisy//src/hid/encoder.h"
   1:../../libdaisy//src/hid/encoder.h **** #pragma once
   2:../../libdaisy//src/hid/encoder.h **** #ifndef DSY_ENCODER_H
   3:../../libdaisy//src/hid/encoder.h **** #define DSY_ENCODER_H
   4:../../libdaisy//src/hid/encoder.h **** #include "daisy_core.h"
   5:../../libdaisy//src/hid/encoder.h **** #include "per/gpio.h"
   6:../../libdaisy//src/hid/encoder.h **** #include "hid/switch.h"
   7:../../libdaisy//src/hid/encoder.h **** 
   8:../../libdaisy//src/hid/encoder.h **** namespace daisy
   9:../../libdaisy//src/hid/encoder.h **** {
  10:../../libdaisy//src/hid/encoder.h **** /** 
  11:../../libdaisy//src/hid/encoder.h ****     @brief Generic Class for handling Quadrature Encoders \n 
  12:../../libdaisy//src/hid/encoder.h ****     Inspired/influenced by Mutable Instruments (pichenettes) Encoder classes
  13:../../libdaisy//src/hid/encoder.h ****     @author Stephen Hensley
  14:../../libdaisy//src/hid/encoder.h ****     @date December 2019
  15:../../libdaisy//src/hid/encoder.h ****     @ingroup controls
  16:../../libdaisy//src/hid/encoder.h **** */
  17:../../libdaisy//src/hid/encoder.h **** class Encoder
  18:../../libdaisy//src/hid/encoder.h **** {
  19:../../libdaisy//src/hid/encoder.h ****   public:
  20:../../libdaisy//src/hid/encoder.h ****     Encoder() {}
  21:../../libdaisy//src/hid/encoder.h ****     ~Encoder() {}
  55              		.loc 2 21 5 is_stmt 1 view -0
ARM GAS  /var/folders/wr/bk9txnv930v5t7d_4s42nmkm0000gq/T//ccJtZ1lc.s 			page 3


  56              		.cfi_startproc
  57              		@ args = 0, pretend = 0, frame = 0
  58              		@ frame_needed = 0, uses_anonymous_args = 0
  59              		@ link register save eliminated.
  60              	.LBB1755:
  61              	.LBI1755:
  62              		.loc 1 41 5 view .LVU3
  63              		.loc 1 41 5 is_stmt 0 view .LVU4
  64              	.LBE1755:
  65              		.loc 2 21 17 view .LVU5
  66 0000 7047     		bx	lr
  67              		.cfi_endproc
  68              	.LFE2523:
  70              		.weak	_ZN5daisy7EncoderD1Ev
  71              		.thumb_set _ZN5daisy7EncoderD1Ev,_ZN5daisy7EncoderD2Ev
  72 0002 00BF     		.section	.text._ZN5daisy12UiEventQueueD2Ev,"axG",%progbits,_ZN5daisy12UiEventQueueD5Ev,comdat
  73              		.align	1
  74              		.p2align 2,,3
  75              		.weak	_ZN5daisy12UiEventQueueD2Ev
  76              		.syntax unified
  77              		.thumb
  78              		.thumb_func
  79              		.fpu fpv5-d16
  81              	_ZN5daisy12UiEventQueueD2Ev:
  82              	.LVL2:
  83              	.LFB2783:
  84              		.file 3 "../../libdaisy//src/ui/UiEventQueue.h"
   1:../../libdaisy//src/ui/UiEventQueue.h **** #pragma once
   2:../../libdaisy//src/ui/UiEventQueue.h **** #include <stdint.h>
   3:../../libdaisy//src/ui/UiEventQueue.h **** #include "../util/FIFO.h"
   4:../../libdaisy//src/ui/UiEventQueue.h **** #include "../util/scopedirqblocker.h"
   5:../../libdaisy//src/ui/UiEventQueue.h **** 
   6:../../libdaisy//src/ui/UiEventQueue.h **** namespace daisy
   7:../../libdaisy//src/ui/UiEventQueue.h **** {
   8:../../libdaisy//src/ui/UiEventQueue.h **** /** @brief A queue that holds user input events in the UI system.
   9:../../libdaisy//src/ui/UiEventQueue.h ****  *  @author jelliesen
  10:../../libdaisy//src/ui/UiEventQueue.h ****  *  @addtogroup ui 
  11:../../libdaisy//src/ui/UiEventQueue.h ****  * 
  12:../../libdaisy//src/ui/UiEventQueue.h ****  * A queue that holds user interface events such as button presses or encoder turns.
  13:../../libdaisy//src/ui/UiEventQueue.h ****  * The queue can be filled from hardware drivers and read from a UI object.
  14:../../libdaisy//src/ui/UiEventQueue.h ****  * Access to the queue is protected by a ScopedIrqBlocker - that means it's safe to add
  15:../../libdaisy//src/ui/UiEventQueue.h ****  * events from interrupt handlers.
  16:../../libdaisy//src/ui/UiEventQueue.h ****  */
  17:../../libdaisy//src/ui/UiEventQueue.h **** class UiEventQueue
  18:../../libdaisy//src/ui/UiEventQueue.h **** {
  19:../../libdaisy//src/ui/UiEventQueue.h ****   public:
  20:../../libdaisy//src/ui/UiEventQueue.h ****     /** A button ID used to indicate an invalid or non existing button. */
  21:../../libdaisy//src/ui/UiEventQueue.h ****     static constexpr uint16_t invalidButtonId = UINT16_MAX;
  22:../../libdaisy//src/ui/UiEventQueue.h **** 
  23:../../libdaisy//src/ui/UiEventQueue.h ****     /** An encoder ID used to indicate an invalid or non existing encoder. */
  24:../../libdaisy//src/ui/UiEventQueue.h ****     static constexpr uint16_t invalidEncoderId = UINT16_MAX;
  25:../../libdaisy//src/ui/UiEventQueue.h **** 
  26:../../libdaisy//src/ui/UiEventQueue.h ****     /** A potentiometer ID used to indicate an invalid or non existing potentiometer. */
  27:../../libdaisy//src/ui/UiEventQueue.h ****     static constexpr uint16_t invalidPotId = UINT16_MAX;
  28:../../libdaisy//src/ui/UiEventQueue.h **** 
  29:../../libdaisy//src/ui/UiEventQueue.h ****     /** An event in the queue */
  30:../../libdaisy//src/ui/UiEventQueue.h ****     struct __attribute__((packed)) Event
ARM GAS  /var/folders/wr/bk9txnv930v5t7d_4s42nmkm0000gq/T//ccJtZ1lc.s 			page 4


  31:../../libdaisy//src/ui/UiEventQueue.h ****     {
  32:../../libdaisy//src/ui/UiEventQueue.h ****         /** The type of event */
  33:../../libdaisy//src/ui/UiEventQueue.h ****         enum class EventType : uint8_t
  34:../../libdaisy//src/ui/UiEventQueue.h ****         {
  35:../../libdaisy//src/ui/UiEventQueue.h ****             /** An invalid event. Returned to indicate that no events are left in the queue. */
  36:../../libdaisy//src/ui/UiEventQueue.h ****             invalid,
  37:../../libdaisy//src/ui/UiEventQueue.h ****             /** A button was pressed. */
  38:../../libdaisy//src/ui/UiEventQueue.h ****             buttonPressed,
  39:../../libdaisy//src/ui/UiEventQueue.h ****             /** A button was released. */
  40:../../libdaisy//src/ui/UiEventQueue.h ****             buttonReleased,
  41:../../libdaisy//src/ui/UiEventQueue.h ****             /** An encoder was turned. */
  42:../../libdaisy//src/ui/UiEventQueue.h ****             encoderTurned,
  43:../../libdaisy//src/ui/UiEventQueue.h ****             /** The user has started or stopped turning an encoder. */
  44:../../libdaisy//src/ui/UiEventQueue.h ****             encoderActivityChanged,
  45:../../libdaisy//src/ui/UiEventQueue.h ****             /** A potentiometer was moved. */
  46:../../libdaisy//src/ui/UiEventQueue.h ****             potMoved,
  47:../../libdaisy//src/ui/UiEventQueue.h ****             /** The user has started or stopped moving a potentiometer. */
  48:../../libdaisy//src/ui/UiEventQueue.h ****             potActivityChanged,
  49:../../libdaisy//src/ui/UiEventQueue.h ****         };
  50:../../libdaisy//src/ui/UiEventQueue.h **** 
  51:../../libdaisy//src/ui/UiEventQueue.h ****         /** Used to indicate if a control is currently being used. */
  52:../../libdaisy//src/ui/UiEventQueue.h ****         enum class ActivityType : uint8_t
  53:../../libdaisy//src/ui/UiEventQueue.h ****         {
  54:../../libdaisy//src/ui/UiEventQueue.h ****             /** The control is not in use at the moment. */
  55:../../libdaisy//src/ui/UiEventQueue.h ****             inactive,
  56:../../libdaisy//src/ui/UiEventQueue.h ****             /** The control is actively used at the moment. */
  57:../../libdaisy//src/ui/UiEventQueue.h ****             active
  58:../../libdaisy//src/ui/UiEventQueue.h ****         };
  59:../../libdaisy//src/ui/UiEventQueue.h **** 
  60:../../libdaisy//src/ui/UiEventQueue.h ****         /** The type of event that this Event object represents. */
  61:../../libdaisy//src/ui/UiEventQueue.h ****         EventType type;
  62:../../libdaisy//src/ui/UiEventQueue.h **** 
  63:../../libdaisy//src/ui/UiEventQueue.h ****         union
  64:../../libdaisy//src/ui/UiEventQueue.h ****         {
  65:../../libdaisy//src/ui/UiEventQueue.h ****             struct __attribute__((packed))
  66:../../libdaisy//src/ui/UiEventQueue.h ****             {
  67:../../libdaisy//src/ui/UiEventQueue.h ****                 /** The unique ID of the button that was pressed. */
  68:../../libdaisy//src/ui/UiEventQueue.h ****                 uint16_t id;
  69:../../libdaisy//src/ui/UiEventQueue.h ****                 /** The number of successive button presses (e.g. double click). */
  70:../../libdaisy//src/ui/UiEventQueue.h ****                 uint16_t numSuccessivePresses;
  71:../../libdaisy//src/ui/UiEventQueue.h ****                 /** True if the event was generated because a button was retriggered 
  72:../../libdaisy//src/ui/UiEventQueue.h ****                  *  automatically while being held down. */
  73:../../libdaisy//src/ui/UiEventQueue.h ****                 bool isRetriggering;
  74:../../libdaisy//src/ui/UiEventQueue.h ****             } asButtonPressed;
  75:../../libdaisy//src/ui/UiEventQueue.h ****             struct __attribute__((packed))
  76:../../libdaisy//src/ui/UiEventQueue.h ****             {
  77:../../libdaisy//src/ui/UiEventQueue.h ****                 /** The unique ID of the button that was released. */
  78:../../libdaisy//src/ui/UiEventQueue.h ****                 uint16_t id;
  79:../../libdaisy//src/ui/UiEventQueue.h ****             } asButtonReleased;
  80:../../libdaisy//src/ui/UiEventQueue.h ****             struct __attribute__((packed))
  81:../../libdaisy//src/ui/UiEventQueue.h ****             {
  82:../../libdaisy//src/ui/UiEventQueue.h ****                 /** The unique ID of the encoder that was turned. */
  83:../../libdaisy//src/ui/UiEventQueue.h ****                 uint16_t id;
  84:../../libdaisy//src/ui/UiEventQueue.h ****                 /** The number of increments detected. */
  85:../../libdaisy//src/ui/UiEventQueue.h ****                 int16_t increments;
  86:../../libdaisy//src/ui/UiEventQueue.h ****                 /** The total number of increments per revolution. */
  87:../../libdaisy//src/ui/UiEventQueue.h ****                 uint16_t stepsPerRev;
ARM GAS  /var/folders/wr/bk9txnv930v5t7d_4s42nmkm0000gq/T//ccJtZ1lc.s 			page 5


  88:../../libdaisy//src/ui/UiEventQueue.h ****             } asEncoderTurned;
  89:../../libdaisy//src/ui/UiEventQueue.h ****             struct __attribute__((packed))
  90:../../libdaisy//src/ui/UiEventQueue.h ****             {
  91:../../libdaisy//src/ui/UiEventQueue.h ****                 /** The unique ID of the encoder that is affected. */
  92:../../libdaisy//src/ui/UiEventQueue.h ****                 uint16_t id;
  93:../../libdaisy//src/ui/UiEventQueue.h ****                 /** The new activity type. */
  94:../../libdaisy//src/ui/UiEventQueue.h ****                 ActivityType newActivityType;
  95:../../libdaisy//src/ui/UiEventQueue.h ****             } asEncoderActivityChanged;
  96:../../libdaisy//src/ui/UiEventQueue.h ****             struct __attribute__((packed))
  97:../../libdaisy//src/ui/UiEventQueue.h ****             {
  98:../../libdaisy//src/ui/UiEventQueue.h ****                 /** The unique ID of the pot that was moved. */
  99:../../libdaisy//src/ui/UiEventQueue.h ****                 uint16_t id;
 100:../../libdaisy//src/ui/UiEventQueue.h ****                 /** The new position of the pot. */
 101:../../libdaisy//src/ui/UiEventQueue.h ****                 float newPosition;
 102:../../libdaisy//src/ui/UiEventQueue.h ****             } asPotMoved;
 103:../../libdaisy//src/ui/UiEventQueue.h ****             struct __attribute__((packed))
 104:../../libdaisy//src/ui/UiEventQueue.h ****             {
 105:../../libdaisy//src/ui/UiEventQueue.h ****                 /** The unique ID of the pot that is affected. */
 106:../../libdaisy//src/ui/UiEventQueue.h ****                 uint16_t id;
 107:../../libdaisy//src/ui/UiEventQueue.h ****                 /** The new activity type. */
 108:../../libdaisy//src/ui/UiEventQueue.h ****                 ActivityType newActivityType;
 109:../../libdaisy//src/ui/UiEventQueue.h ****             } asPotActivityChanged;
 110:../../libdaisy//src/ui/UiEventQueue.h ****         };
 111:../../libdaisy//src/ui/UiEventQueue.h ****     };
 112:../../libdaisy//src/ui/UiEventQueue.h **** 
 113:../../libdaisy//src/ui/UiEventQueue.h ****     UiEventQueue() {}
 114:../../libdaisy//src/ui/UiEventQueue.h ****     ~UiEventQueue() {}
  85              		.loc 3 114 5 is_stmt 1 view -0
  86              		.cfi_startproc
  87              		@ args = 0, pretend = 0, frame = 0
  88              		@ frame_needed = 0, uses_anonymous_args = 0
  89              		@ link register save eliminated.
  90              	.LBB1756:
  91              	.LBI1756:
  92              		.file 4 "../../libdaisy//src/ui/../util/FIFO.h"
   1:../../libdaisy//src/ui/../util/FIFO.h **** #pragma once
   2:../../libdaisy//src/ui/../util/FIFO.h **** 
   3:../../libdaisy//src/ui/../util/FIFO.h **** #include <stdint.h>
   4:../../libdaisy//src/ui/../util/FIFO.h **** #include <stddef.h>
   5:../../libdaisy//src/ui/../util/FIFO.h **** #include <initializer_list>
   6:../../libdaisy//src/ui/../util/FIFO.h **** 
   7:../../libdaisy//src/ui/../util/FIFO.h **** namespace daisy
   8:../../libdaisy//src/ui/../util/FIFO.h **** {
   9:../../libdaisy//src/ui/../util/FIFO.h **** /** Capacity-independent base class for FIFO. Use FIFO instead. */
  10:../../libdaisy//src/ui/../util/FIFO.h **** template <typename T>
  11:../../libdaisy//src/ui/../util/FIFO.h **** class FIFOBase
  12:../../libdaisy//src/ui/../util/FIFO.h **** {
  13:../../libdaisy//src/ui/../util/FIFO.h ****   protected:
  14:../../libdaisy//src/ui/../util/FIFO.h ****     FIFOBase(T* buffer, size_t bufferSize)
  15:../../libdaisy//src/ui/../util/FIFO.h ****     : buffer_(buffer), bufferSize_(bufferSize), bufferIn_(0), bufferOut_(0)
  16:../../libdaisy//src/ui/../util/FIFO.h ****     {
  17:../../libdaisy//src/ui/../util/FIFO.h ****     }
  18:../../libdaisy//src/ui/../util/FIFO.h **** 
  19:../../libdaisy//src/ui/../util/FIFO.h ****     FIFOBase(T* buffer, size_t bufferSize, std::initializer_list<T> valuesToAdd)
  20:../../libdaisy//src/ui/../util/FIFO.h ****     : buffer_(buffer), bufferSize_(bufferSize), bufferIn_(0), bufferOut_(0)
  21:../../libdaisy//src/ui/../util/FIFO.h ****     {
  22:../../libdaisy//src/ui/../util/FIFO.h ****         PushBack(valuesToAdd);
ARM GAS  /var/folders/wr/bk9txnv930v5t7d_4s42nmkm0000gq/T//ccJtZ1lc.s 			page 6


  23:../../libdaisy//src/ui/../util/FIFO.h ****     }
  24:../../libdaisy//src/ui/../util/FIFO.h **** 
  25:../../libdaisy//src/ui/../util/FIFO.h ****   public:
  26:../../libdaisy//src/ui/../util/FIFO.h ****     /** Copies all elements from another FIFO */
  27:../../libdaisy//src/ui/../util/FIFO.h ****     FIFOBase<T>& operator=(const FIFOBase<T>& other)
  28:../../libdaisy//src/ui/../util/FIFO.h ****     {
  29:../../libdaisy//src/ui/../util/FIFO.h ****         bufferIn_ = bufferOut_ = 0;
  30:../../libdaisy//src/ui/../util/FIFO.h ****         if(!other.IsEmpty())
  31:../../libdaisy//src/ui/../util/FIFO.h ****         {
  32:../../libdaisy//src/ui/../util/FIFO.h ****             int readPtr = other.bufferOut_;
  33:../../libdaisy//src/ui/../util/FIFO.h ****             while((readPtr != other.bufferIn_) && (bufferIn_ < bufferSize_))
  34:../../libdaisy//src/ui/../util/FIFO.h ****             {
  35:../../libdaisy//src/ui/../util/FIFO.h ****                 buffer_[bufferIn_++] = other.buffer_[readPtr++];
  36:../../libdaisy//src/ui/../util/FIFO.h ****                 if(readPtr >= other.bufferSize_)
  37:../../libdaisy//src/ui/../util/FIFO.h ****                     readPtr -= other.bufferSize_;
  38:../../libdaisy//src/ui/../util/FIFO.h ****             }
  39:../../libdaisy//src/ui/../util/FIFO.h ****         }
  40:../../libdaisy//src/ui/../util/FIFO.h ****         return *this;
  41:../../libdaisy//src/ui/../util/FIFO.h ****     }
  42:../../libdaisy//src/ui/../util/FIFO.h ****     ~FIFOBase() {}
  43:../../libdaisy//src/ui/../util/FIFO.h **** 
  44:../../libdaisy//src/ui/../util/FIFO.h ****     /** Removes all elements from the FIFO */
  45:../../libdaisy//src/ui/../util/FIFO.h ****     void Clear() { bufferIn_ = bufferOut_ = 0; }
  46:../../libdaisy//src/ui/../util/FIFO.h **** 
  47:../../libdaisy//src/ui/../util/FIFO.h ****     /** Adds an element to the back of the buffer, returning true on
  48:../../libdaisy//src/ui/../util/FIFO.h ****         success */
  49:../../libdaisy//src/ui/../util/FIFO.h ****     bool PushBack(const T& elementToAdd)
  50:../../libdaisy//src/ui/../util/FIFO.h ****     {
  51:../../libdaisy//src/ui/../util/FIFO.h ****         if(!IsFull())
  52:../../libdaisy//src/ui/../util/FIFO.h ****         {
  53:../../libdaisy//src/ui/../util/FIFO.h ****             buffer_[bufferIn_++] = elementToAdd;
  54:../../libdaisy//src/ui/../util/FIFO.h ****             if(bufferIn_ >= bufferSize_)
  55:../../libdaisy//src/ui/../util/FIFO.h ****                 bufferIn_ -= bufferSize_;
  56:../../libdaisy//src/ui/../util/FIFO.h ****             return true;
  57:../../libdaisy//src/ui/../util/FIFO.h ****         }
  58:../../libdaisy//src/ui/../util/FIFO.h ****         return false;
  59:../../libdaisy//src/ui/../util/FIFO.h ****     }
  60:../../libdaisy//src/ui/../util/FIFO.h **** 
  61:../../libdaisy//src/ui/../util/FIFO.h ****     /** Adds multiple elements and returns the number of elements that were added */
  62:../../libdaisy//src/ui/../util/FIFO.h ****     int PushBack(std::initializer_list<T> valuesToAdd)
  63:../../libdaisy//src/ui/../util/FIFO.h ****     {
  64:../../libdaisy//src/ui/../util/FIFO.h ****         int numAdded = 0;
  65:../../libdaisy//src/ui/../util/FIFO.h ****         for(const auto& v : valuesToAdd)
  66:../../libdaisy//src/ui/../util/FIFO.h ****         {
  67:../../libdaisy//src/ui/../util/FIFO.h ****             if(IsFull())
  68:../../libdaisy//src/ui/../util/FIFO.h ****                 return numAdded;
  69:../../libdaisy//src/ui/../util/FIFO.h **** 
  70:../../libdaisy//src/ui/../util/FIFO.h ****             PushBack(v);
  71:../../libdaisy//src/ui/../util/FIFO.h ****             numAdded++;
  72:../../libdaisy//src/ui/../util/FIFO.h ****         }
  73:../../libdaisy//src/ui/../util/FIFO.h ****         return numAdded;
  74:../../libdaisy//src/ui/../util/FIFO.h ****     }
  75:../../libdaisy//src/ui/../util/FIFO.h **** 
  76:../../libdaisy//src/ui/../util/FIFO.h ****     /** returns a reference to the last element */
  77:../../libdaisy//src/ui/../util/FIFO.h ****     T& Back()
  78:../../libdaisy//src/ui/../util/FIFO.h ****     {
  79:../../libdaisy//src/ui/../util/FIFO.h ****         if(IsEmpty())
ARM GAS  /var/folders/wr/bk9txnv930v5t7d_4s42nmkm0000gq/T//ccJtZ1lc.s 			page 7


  80:../../libdaisy//src/ui/../util/FIFO.h ****             // invalid, but better not pass a temporary T() object as a reference...
  81:../../libdaisy//src/ui/../util/FIFO.h ****             return buffer_[0];
  82:../../libdaisy//src/ui/../util/FIFO.h ****         int idx = bufferIn_ - 1;
  83:../../libdaisy//src/ui/../util/FIFO.h ****         if(idx < 0)
  84:../../libdaisy//src/ui/../util/FIFO.h ****             idx += bufferSize_;
  85:../../libdaisy//src/ui/../util/FIFO.h ****         return buffer_[idx];
  86:../../libdaisy//src/ui/../util/FIFO.h ****     }
  87:../../libdaisy//src/ui/../util/FIFO.h **** 
  88:../../libdaisy//src/ui/../util/FIFO.h ****     /** returns a reference to the last element */
  89:../../libdaisy//src/ui/../util/FIFO.h ****     const T& Back() const
  90:../../libdaisy//src/ui/../util/FIFO.h ****     {
  91:../../libdaisy//src/ui/../util/FIFO.h ****         if(IsEmpty())
  92:../../libdaisy//src/ui/../util/FIFO.h ****             // invalid, but better not pass a temporary T() object as a reference...
  93:../../libdaisy//src/ui/../util/FIFO.h ****             return buffer_[0];
  94:../../libdaisy//src/ui/../util/FIFO.h ****         int idx = bufferIn_ - 1;
  95:../../libdaisy//src/ui/../util/FIFO.h ****         if(idx < 0)
  96:../../libdaisy//src/ui/../util/FIFO.h ****             idx += bufferSize_;
  97:../../libdaisy//src/ui/../util/FIFO.h ****         return buffer_[idx];
  98:../../libdaisy//src/ui/../util/FIFO.h ****     }
  99:../../libdaisy//src/ui/../util/FIFO.h **** 
 100:../../libdaisy//src/ui/../util/FIFO.h ****     /** removes and returns an element from the front of the buffer */
 101:../../libdaisy//src/ui/../util/FIFO.h ****     T PopFront()
 102:../../libdaisy//src/ui/../util/FIFO.h ****     {
 103:../../libdaisy//src/ui/../util/FIFO.h ****         if(IsEmpty())
 104:../../libdaisy//src/ui/../util/FIFO.h ****             return T();
 105:../../libdaisy//src/ui/../util/FIFO.h ****         else
 106:../../libdaisy//src/ui/../util/FIFO.h ****         {
 107:../../libdaisy//src/ui/../util/FIFO.h ****             const auto result = buffer_[bufferOut_];
 108:../../libdaisy//src/ui/../util/FIFO.h ****             bufferOut_++;
 109:../../libdaisy//src/ui/../util/FIFO.h ****             if(bufferOut_ >= bufferSize_)
 110:../../libdaisy//src/ui/../util/FIFO.h ****                 bufferOut_ -= bufferSize_;
 111:../../libdaisy//src/ui/../util/FIFO.h ****             return result;
 112:../../libdaisy//src/ui/../util/FIFO.h ****         }
 113:../../libdaisy//src/ui/../util/FIFO.h ****     }
 114:../../libdaisy//src/ui/../util/FIFO.h **** 
 115:../../libdaisy//src/ui/../util/FIFO.h ****     /** returns a copy of the first element */
 116:../../libdaisy//src/ui/../util/FIFO.h ****     T& Front()
 117:../../libdaisy//src/ui/../util/FIFO.h ****     {
 118:../../libdaisy//src/ui/../util/FIFO.h ****         if(IsEmpty())
 119:../../libdaisy//src/ui/../util/FIFO.h ****             // invalid, but better not pass a temporary T() object as a reference...
 120:../../libdaisy//src/ui/../util/FIFO.h ****             return buffer_[0];
 121:../../libdaisy//src/ui/../util/FIFO.h ****         return buffer_[bufferOut_];
 122:../../libdaisy//src/ui/../util/FIFO.h ****     }
 123:../../libdaisy//src/ui/../util/FIFO.h **** 
 124:../../libdaisy//src/ui/../util/FIFO.h ****     /** returns a reference to the first element */
 125:../../libdaisy//src/ui/../util/FIFO.h ****     const T& Front() const
 126:../../libdaisy//src/ui/../util/FIFO.h ****     {
 127:../../libdaisy//src/ui/../util/FIFO.h ****         if(IsEmpty())
 128:../../libdaisy//src/ui/../util/FIFO.h ****             // invalid, but better not pass a temporary T() object as a reference...
 129:../../libdaisy//src/ui/../util/FIFO.h ****             return buffer_[0];
 130:../../libdaisy//src/ui/../util/FIFO.h ****         return buffer_[bufferOut_];
 131:../../libdaisy//src/ui/../util/FIFO.h ****     }
 132:../../libdaisy//src/ui/../util/FIFO.h **** 
 133:../../libdaisy//src/ui/../util/FIFO.h ****     /** Returns true if the buffer contains an element equal to the provided value */
 134:../../libdaisy//src/ui/../util/FIFO.h ****     bool Contains(const T& element)
 135:../../libdaisy//src/ui/../util/FIFO.h ****     {
 136:../../libdaisy//src/ui/../util/FIFO.h ****         auto idx = bufferOut_;
ARM GAS  /var/folders/wr/bk9txnv930v5t7d_4s42nmkm0000gq/T//ccJtZ1lc.s 			page 8


 137:../../libdaisy//src/ui/../util/FIFO.h ****         while(idx != bufferIn_)
 138:../../libdaisy//src/ui/../util/FIFO.h ****         {
 139:../../libdaisy//src/ui/../util/FIFO.h ****             if(buffer_[idx] == element)
 140:../../libdaisy//src/ui/../util/FIFO.h ****                 return true;
 141:../../libdaisy//src/ui/../util/FIFO.h ****             idx++;
 142:../../libdaisy//src/ui/../util/FIFO.h ****             if(idx >= bufferSize_)
 143:../../libdaisy//src/ui/../util/FIFO.h ****                 idx -= bufferSize_;
 144:../../libdaisy//src/ui/../util/FIFO.h ****         }
 145:../../libdaisy//src/ui/../util/FIFO.h ****         return false;
 146:../../libdaisy//src/ui/../util/FIFO.h ****     }
 147:../../libdaisy//src/ui/../util/FIFO.h **** 
 148:../../libdaisy//src/ui/../util/FIFO.h ****     /** Returns the number of elements in the buffer that are equal to the provided value */
 149:../../libdaisy//src/ui/../util/FIFO.h ****     size_t CountEqualTo(const T& element)
 150:../../libdaisy//src/ui/../util/FIFO.h ****     {
 151:../../libdaisy//src/ui/../util/FIFO.h ****         size_t result = 0;
 152:../../libdaisy//src/ui/../util/FIFO.h ****         size_t idx    = bufferOut_;
 153:../../libdaisy//src/ui/../util/FIFO.h ****         while(idx != bufferIn_)
 154:../../libdaisy//src/ui/../util/FIFO.h ****         {
 155:../../libdaisy//src/ui/../util/FIFO.h ****             if(buffer_[idx] == element)
 156:../../libdaisy//src/ui/../util/FIFO.h ****                 result++;
 157:../../libdaisy//src/ui/../util/FIFO.h ****             idx++;
 158:../../libdaisy//src/ui/../util/FIFO.h ****             if(idx >= bufferSize_)
 159:../../libdaisy//src/ui/../util/FIFO.h ****                 idx -= bufferSize_;
 160:../../libdaisy//src/ui/../util/FIFO.h ****         }
 161:../../libdaisy//src/ui/../util/FIFO.h ****         return result;
 162:../../libdaisy//src/ui/../util/FIFO.h ****     }
 163:../../libdaisy//src/ui/../util/FIFO.h **** 
 164:../../libdaisy//src/ui/../util/FIFO.h ****     /** returns true, if the buffer is empty */
 165:../../libdaisy//src/ui/../util/FIFO.h ****     bool IsEmpty() const { return bufferIn_ == bufferOut_; }
 166:../../libdaisy//src/ui/../util/FIFO.h **** 
 167:../../libdaisy//src/ui/../util/FIFO.h ****     /** returns true, if the buffer is Full */
 168:../../libdaisy//src/ui/../util/FIFO.h ****     bool IsFull() const { return GetNumElements() == bufferSize_ - 1; }
 169:../../libdaisy//src/ui/../util/FIFO.h **** 
 170:../../libdaisy//src/ui/../util/FIFO.h ****     /** returns the number of elements in the buffer */
 171:../../libdaisy//src/ui/../util/FIFO.h ****     size_t GetNumElements() const
 172:../../libdaisy//src/ui/../util/FIFO.h ****     {
 173:../../libdaisy//src/ui/../util/FIFO.h ****         int32_t numElements = bufferIn_ - bufferOut_;
 174:../../libdaisy//src/ui/../util/FIFO.h ****         if(numElements < 0)
 175:../../libdaisy//src/ui/../util/FIFO.h ****             numElements += bufferSize_;
 176:../../libdaisy//src/ui/../util/FIFO.h ****         return size_t(numElements);
 177:../../libdaisy//src/ui/../util/FIFO.h ****     }
 178:../../libdaisy//src/ui/../util/FIFO.h **** 
 179:../../libdaisy//src/ui/../util/FIFO.h ****     /** inserts an element "idx" positions behind the first element and returns true if successful 
 180:../../libdaisy//src/ui/../util/FIFO.h ****     bool Insert(size_t idx, const T& element)
 181:../../libdaisy//src/ui/../util/FIFO.h ****     {
 182:../../libdaisy//src/ui/../util/FIFO.h ****         if(idx > GetNumElements())
 183:../../libdaisy//src/ui/../util/FIFO.h ****             return false;
 184:../../libdaisy//src/ui/../util/FIFO.h ****         if(IsFull())
 185:../../libdaisy//src/ui/../util/FIFO.h ****             return false;
 186:../../libdaisy//src/ui/../util/FIFO.h ****         if(idx == GetNumElements())
 187:../../libdaisy//src/ui/../util/FIFO.h ****         {
 188:../../libdaisy//src/ui/../util/FIFO.h ****             PushBack(element);
 189:../../libdaisy//src/ui/../util/FIFO.h ****             return true;
 190:../../libdaisy//src/ui/../util/FIFO.h ****         }
 191:../../libdaisy//src/ui/../util/FIFO.h ****         // copy last element
 192:../../libdaisy//src/ui/../util/FIFO.h ****         PushBack(Back());
 193:../../libdaisy//src/ui/../util/FIFO.h ****         // move remaining elements: n => n+1
ARM GAS  /var/folders/wr/bk9txnv930v5t7d_4s42nmkm0000gq/T//ccJtZ1lc.s 			page 9


 194:../../libdaisy//src/ui/../util/FIFO.h ****         for(int i = GetNumElements() - 2; i > int(idx); i--)
 195:../../libdaisy//src/ui/../util/FIFO.h ****             (*this)[i] = (*this)[i - 1];
 196:../../libdaisy//src/ui/../util/FIFO.h ****         // insert element
 197:../../libdaisy//src/ui/../util/FIFO.h ****         (*this)[idx] = element;
 198:../../libdaisy//src/ui/../util/FIFO.h ****         return true;
 199:../../libdaisy//src/ui/../util/FIFO.h ****     }
 200:../../libdaisy//src/ui/../util/FIFO.h **** 
 201:../../libdaisy//src/ui/../util/FIFO.h ****     /** removes the element "idx" positions behind the first element 
 202:../../libdaisy//src/ui/../util/FIFO.h ****      *  and returns true if successful */
 203:../../libdaisy//src/ui/../util/FIFO.h ****     bool Remove(size_t idx)
 204:../../libdaisy//src/ui/../util/FIFO.h ****     {
 205:../../libdaisy//src/ui/../util/FIFO.h ****         if(idx >= GetNumElements())
 206:../../libdaisy//src/ui/../util/FIFO.h ****             return false;
 207:../../libdaisy//src/ui/../util/FIFO.h **** 
 208:../../libdaisy//src/ui/../util/FIFO.h ****         size_t index = bufferOut_ + idx;
 209:../../libdaisy//src/ui/../util/FIFO.h ****         if(index >= bufferSize_)
 210:../../libdaisy//src/ui/../util/FIFO.h ****             index -= bufferSize_;
 211:../../libdaisy//src/ui/../util/FIFO.h ****         size_t nextIndex = index + 1;
 212:../../libdaisy//src/ui/../util/FIFO.h ****         if(nextIndex >= bufferSize_)
 213:../../libdaisy//src/ui/../util/FIFO.h ****             nextIndex -= bufferSize_;
 214:../../libdaisy//src/ui/../util/FIFO.h **** 
 215:../../libdaisy//src/ui/../util/FIFO.h ****         while(nextIndex != bufferIn_)
 216:../../libdaisy//src/ui/../util/FIFO.h ****         {
 217:../../libdaisy//src/ui/../util/FIFO.h ****             buffer_[index] = buffer_[nextIndex];
 218:../../libdaisy//src/ui/../util/FIFO.h ****             index++;
 219:../../libdaisy//src/ui/../util/FIFO.h ****             nextIndex++;
 220:../../libdaisy//src/ui/../util/FIFO.h ****             if(index >= bufferSize_)
 221:../../libdaisy//src/ui/../util/FIFO.h ****                 index -= bufferSize_;
 222:../../libdaisy//src/ui/../util/FIFO.h ****             if(nextIndex >= bufferSize_)
 223:../../libdaisy//src/ui/../util/FIFO.h ****                 nextIndex -= bufferSize_;
 224:../../libdaisy//src/ui/../util/FIFO.h ****         }
 225:../../libdaisy//src/ui/../util/FIFO.h **** 
 226:../../libdaisy//src/ui/../util/FIFO.h ****         int32_t nextBufferIn = int32_t(bufferIn_) - 1;
 227:../../libdaisy//src/ui/../util/FIFO.h ****         if(nextBufferIn < 0)
 228:../../libdaisy//src/ui/../util/FIFO.h ****             nextBufferIn += bufferSize_;
 229:../../libdaisy//src/ui/../util/FIFO.h ****         bufferIn_ = size_t(nextBufferIn);
 230:../../libdaisy//src/ui/../util/FIFO.h **** 
 231:../../libdaisy//src/ui/../util/FIFO.h ****         return true;
 232:../../libdaisy//src/ui/../util/FIFO.h ****     }
 233:../../libdaisy//src/ui/../util/FIFO.h **** 
 234:../../libdaisy//src/ui/../util/FIFO.h ****     /** removes all elements from the buffer for which
 235:../../libdaisy//src/ui/../util/FIFO.h ****         (buffer(index) == element) returns true and returns the number of
 236:../../libdaisy//src/ui/../util/FIFO.h ****         elements that were removed. */
 237:../../libdaisy//src/ui/../util/FIFO.h ****     size_t RemoveAllEqualTo(const T& element)
 238:../../libdaisy//src/ui/../util/FIFO.h ****     {
 239:../../libdaisy//src/ui/../util/FIFO.h ****         size_t numRemoved = 0;
 240:../../libdaisy//src/ui/../util/FIFO.h ****         int    idx        = GetNumElements() - 1;
 241:../../libdaisy//src/ui/../util/FIFO.h ****         while(idx >= 0)
 242:../../libdaisy//src/ui/../util/FIFO.h ****         {
 243:../../libdaisy//src/ui/../util/FIFO.h ****             if((*this)[idx] == element)
 244:../../libdaisy//src/ui/../util/FIFO.h ****             {
 245:../../libdaisy//src/ui/../util/FIFO.h ****                 numRemoved++;
 246:../../libdaisy//src/ui/../util/FIFO.h ****                 Remove(idx);
 247:../../libdaisy//src/ui/../util/FIFO.h ****                 // was that the last element?
 248:../../libdaisy//src/ui/../util/FIFO.h ****                 if(idx == int(GetNumElements()) - 1)
 249:../../libdaisy//src/ui/../util/FIFO.h ****                     idx--;
 250:../../libdaisy//src/ui/../util/FIFO.h ****             }
ARM GAS  /var/folders/wr/bk9txnv930v5t7d_4s42nmkm0000gq/T//ccJtZ1lc.s 			page 10


 251:../../libdaisy//src/ui/../util/FIFO.h ****             else
 252:../../libdaisy//src/ui/../util/FIFO.h ****                 idx--;
 253:../../libdaisy//src/ui/../util/FIFO.h ****         }
 254:../../libdaisy//src/ui/../util/FIFO.h ****         return numRemoved;
 255:../../libdaisy//src/ui/../util/FIFO.h ****     }
 256:../../libdaisy//src/ui/../util/FIFO.h **** 
 257:../../libdaisy//src/ui/../util/FIFO.h ****     /** returns the element "idx" positions behind the first element */
 258:../../libdaisy//src/ui/../util/FIFO.h ****     T& operator[](size_t idx)
 259:../../libdaisy//src/ui/../util/FIFO.h ****     {
 260:../../libdaisy//src/ui/../util/FIFO.h ****         if(idx >= GetNumElements())
 261:../../libdaisy//src/ui/../util/FIFO.h ****             // invalid, but better not pass a temporary T() object as a reference...
 262:../../libdaisy//src/ui/../util/FIFO.h ****             return buffer_[0];
 263:../../libdaisy//src/ui/../util/FIFO.h **** 
 264:../../libdaisy//src/ui/../util/FIFO.h ****         size_t index = bufferOut_ + idx;
 265:../../libdaisy//src/ui/../util/FIFO.h ****         if(index >= bufferSize_)
 266:../../libdaisy//src/ui/../util/FIFO.h ****             index -= bufferSize_;
 267:../../libdaisy//src/ui/../util/FIFO.h ****         return buffer_[index];
 268:../../libdaisy//src/ui/../util/FIFO.h ****     }
 269:../../libdaisy//src/ui/../util/FIFO.h **** 
 270:../../libdaisy//src/ui/../util/FIFO.h ****     /** returns the element "idx" positions behind the first element */
 271:../../libdaisy//src/ui/../util/FIFO.h ****     const T& operator[](size_t idx) const
 272:../../libdaisy//src/ui/../util/FIFO.h ****     {
 273:../../libdaisy//src/ui/../util/FIFO.h ****         if(idx >= GetNumElements())
 274:../../libdaisy//src/ui/../util/FIFO.h ****             // invalid, but better not pass a temporary T() object as a reference...
 275:../../libdaisy//src/ui/../util/FIFO.h ****             return buffer_[0];
 276:../../libdaisy//src/ui/../util/FIFO.h **** 
 277:../../libdaisy//src/ui/../util/FIFO.h ****         size_t index = bufferOut_ + idx;
 278:../../libdaisy//src/ui/../util/FIFO.h ****         if(index >= bufferSize_)
 279:../../libdaisy//src/ui/../util/FIFO.h ****             index -= bufferSize_;
 280:../../libdaisy//src/ui/../util/FIFO.h ****         return buffer_[index];
 281:../../libdaisy//src/ui/../util/FIFO.h ****     }
 282:../../libdaisy//src/ui/../util/FIFO.h **** 
 283:../../libdaisy//src/ui/../util/FIFO.h ****     /** returns the total capacity */
 284:../../libdaisy//src/ui/../util/FIFO.h ****     size_t GetCapacity() const { return bufferSize_ - 1; }
 285:../../libdaisy//src/ui/../util/FIFO.h **** 
 286:../../libdaisy//src/ui/../util/FIFO.h ****   private:
 287:../../libdaisy//src/ui/../util/FIFO.h ****     FIFOBase(const FIFOBase<T>& other) {} // non copyable
 288:../../libdaisy//src/ui/../util/FIFO.h **** 
 289:../../libdaisy//src/ui/../util/FIFO.h ****   private:
 290:../../libdaisy//src/ui/../util/FIFO.h ****     T*           buffer_;
 291:../../libdaisy//src/ui/../util/FIFO.h ****     const size_t bufferSize_;
 292:../../libdaisy//src/ui/../util/FIFO.h ****     size_t       bufferIn_;
 293:../../libdaisy//src/ui/../util/FIFO.h ****     size_t       bufferOut_;
 294:../../libdaisy//src/ui/../util/FIFO.h **** };
 295:../../libdaisy//src/ui/../util/FIFO.h **** 
 296:../../libdaisy//src/ui/../util/FIFO.h **** /** A simple FIFO ring buffer with a fixed size. */
 297:../../libdaisy//src/ui/../util/FIFO.h **** template <typename T, size_t capacity>
 298:../../libdaisy//src/ui/../util/FIFO.h **** class FIFO : public FIFOBase<T>
  93              		.loc 4 298 7 view .LVU7
  94              	.LBB1757:
  95              	.LBI1757:
  42:../../libdaisy//src/ui/../util/FIFO.h **** 
  96              		.loc 4 42 5 view .LVU8
  42:../../libdaisy//src/ui/../util/FIFO.h **** 
  97              		.loc 4 42 5 is_stmt 0 view .LVU9
  98              	.LBE1757:
  99              	.LBE1756:
ARM GAS  /var/folders/wr/bk9txnv930v5t7d_4s42nmkm0000gq/T//ccJtZ1lc.s 			page 11


 100              		.loc 3 114 22 view .LVU10
 101 0000 7047     		bx	lr
 102              		.cfi_endproc
 103              	.LFE2783:
 105              		.weak	_ZN5daisy12UiEventQueueD1Ev
 106              		.thumb_set _ZN5daisy12UiEventQueueD1Ev,_ZN5daisy12UiEventQueueD2Ev
 107 0002 00BF     		.section	.text._ZN5daisy16MappedFloatValueD2Ev,"axG",%progbits,_ZN5daisy16MappedFloatValueD5Ev,com
 108              		.align	1
 109              		.p2align 2,,3
 110              		.weak	_ZN5daisy16MappedFloatValueD2Ev
 111              		.syntax unified
 112              		.thumb
 113              		.thumb_func
 114              		.fpu fpv5-d16
 116              	_ZN5daisy16MappedFloatValueD2Ev:
 117              	.LVL3:
 118              	.LFB2916:
 119              		.file 5 "../../libdaisy//src/util/MappedValue.h"
   1:../../libdaisy//src/util/MappedValue.h **** #pragma once
   2:../../libdaisy//src/util/MappedValue.h **** #include <stdint.h>
   3:../../libdaisy//src/util/MappedValue.h **** #include "FixedCapStr.h"
   4:../../libdaisy//src/util/MappedValue.h **** 
   5:../../libdaisy//src/util/MappedValue.h **** namespace daisy
   6:../../libdaisy//src/util/MappedValue.h **** {
   7:../../libdaisy//src/util/MappedValue.h **** /** @brief Abstract base class for a value that is mapped to a 0..1 normalized range.
   8:../../libdaisy//src/util/MappedValue.h ****  *  @author jelliesen
   9:../../libdaisy//src/util/MappedValue.h ****  *  @addtogroup utility
  10:../../libdaisy//src/util/MappedValue.h ****  */
  11:../../libdaisy//src/util/MappedValue.h **** class MappedValue
  12:../../libdaisy//src/util/MappedValue.h **** {
  13:../../libdaisy//src/util/MappedValue.h ****   public:
  14:../../libdaisy//src/util/MappedValue.h ****     virtual ~MappedValue() {}
  15:../../libdaisy//src/util/MappedValue.h **** 
  16:../../libdaisy//src/util/MappedValue.h ****     /** Generates a string representation and adds it to an existing string.
  17:../../libdaisy//src/util/MappedValue.h ****      * @param string    The string to add to
  18:../../libdaisy//src/util/MappedValue.h ****      */
  19:../../libdaisy//src/util/MappedValue.h ****     virtual void AppentToString(FixedCapStrBase<char>& string) const = 0;
  20:../../libdaisy//src/util/MappedValue.h **** 
  21:../../libdaisy//src/util/MappedValue.h ****     /** Resets the value to its default. */
  22:../../libdaisy//src/util/MappedValue.h ****     virtual void ResetToDefault() = 0;
  23:../../libdaisy//src/util/MappedValue.h **** 
  24:../../libdaisy//src/util/MappedValue.h ****     /** Returns the 0..1 normalized representation of the value, 
  25:../../libdaisy//src/util/MappedValue.h ****      *  e.g. to display a slider/knob on a UI. */
  26:../../libdaisy//src/util/MappedValue.h ****     virtual float GetAs0to1() const = 0;
  27:../../libdaisy//src/util/MappedValue.h **** 
  28:../../libdaisy//src/util/MappedValue.h ****     /** Sets the value so that `GetAs0to1()` returns `normalizedValue0to1`. */
  29:../../libdaisy//src/util/MappedValue.h ****     virtual void SetFrom0to1(float normalizedValue0to1) = 0;
  30:../../libdaisy//src/util/MappedValue.h **** 
  31:../../libdaisy//src/util/MappedValue.h ****     /** Steps the value up by whatever is appropriate. This function can be used
  32:../../libdaisy//src/util/MappedValue.h ****      *  to increment/decrement the value with buttons/encoders while making use 
  33:../../libdaisy//src/util/MappedValue.h ****      *  of the specific mapping. */
  34:../../libdaisy//src/util/MappedValue.h ****     virtual void Step(int16_t numStepsUp, bool useCoarseStepSize) = 0;
  35:../../libdaisy//src/util/MappedValue.h **** };
  36:../../libdaisy//src/util/MappedValue.h **** 
  37:../../libdaisy//src/util/MappedValue.h **** /** @brief A `MappedValue` that maps a float value using various mapping functions.
  38:../../libdaisy//src/util/MappedValue.h ****  *  @author jelliesen
  39:../../libdaisy//src/util/MappedValue.h ****  *  @addtogroup utility
ARM GAS  /var/folders/wr/bk9txnv930v5t7d_4s42nmkm0000gq/T//ccJtZ1lc.s 			page 12


  40:../../libdaisy//src/util/MappedValue.h ****  */
  41:../../libdaisy//src/util/MappedValue.h **** class MappedFloatValue : public MappedValue
  42:../../libdaisy//src/util/MappedValue.h **** {
  43:../../libdaisy//src/util/MappedValue.h ****   public:
  44:../../libdaisy//src/util/MappedValue.h ****     /** The availablke mapping functions */
  45:../../libdaisy//src/util/MappedValue.h ****     enum class Mapping
  46:../../libdaisy//src/util/MappedValue.h ****     {
  47:../../libdaisy//src/util/MappedValue.h ****         /** The value is mapped linearly between min and max. */
  48:../../libdaisy//src/util/MappedValue.h ****         lin,
  49:../../libdaisy//src/util/MappedValue.h ****         /** The value is mapped logarithmically. Note that the valid 
  50:../../libdaisy//src/util/MappedValue.h ****          *  values must be strictly larger than zero, so: min > 0, max > 0
  51:../../libdaisy//src/util/MappedValue.h ****          */
  52:../../libdaisy//src/util/MappedValue.h ****         log,
  53:../../libdaisy//src/util/MappedValue.h ****         /** The value is mapped with a square law */
  54:../../libdaisy//src/util/MappedValue.h ****         pow2
  55:../../libdaisy//src/util/MappedValue.h ****     };
  56:../../libdaisy//src/util/MappedValue.h **** 
  57:../../libdaisy//src/util/MappedValue.h ****     /** Creates a MappedFloatValue.
  58:../../libdaisy//src/util/MappedValue.h ****      * @param min           The lower end of the range of possible values
  59:../../libdaisy//src/util/MappedValue.h ****      * @param max           The upper end of the range of possible values
  60:../../libdaisy//src/util/MappedValue.h ****      * @param defaultValue  The default value
  61:../../libdaisy//src/util/MappedValue.h ****      * @param mapping       The `Mapping` to use. Note that for `Mapping::log`
  62:../../libdaisy//src/util/MappedValue.h ****      *                      `min`, `max` and ``defaultValue` must be > 0
  63:../../libdaisy//src/util/MappedValue.h ****      * @param unitStr       A string for the unit, e.g. "Hz"
  64:../../libdaisy//src/util/MappedValue.h ****      * @param numDecimals   Controls the number of decimals in `AppendToString()`
  65:../../libdaisy//src/util/MappedValue.h ****      * @param forceSign     Controls whether `AppendToString()` always prints the sign, 
  66:../../libdaisy//src/util/MappedValue.h ****      *                      even for positive numbers
  67:../../libdaisy//src/util/MappedValue.h ****     */
  68:../../libdaisy//src/util/MappedValue.h ****     MappedFloatValue(float       min,
  69:../../libdaisy//src/util/MappedValue.h ****                      float       max,
  70:../../libdaisy//src/util/MappedValue.h ****                      float       defaultValue,
  71:../../libdaisy//src/util/MappedValue.h ****                      Mapping     mapping     = Mapping::lin,
  72:../../libdaisy//src/util/MappedValue.h ****                      const char* unitStr     = "",
  73:../../libdaisy//src/util/MappedValue.h ****                      uint8_t     numDecimals = 1,
  74:../../libdaisy//src/util/MappedValue.h ****                      bool        forceSign   = false);
  75:../../libdaisy//src/util/MappedValue.h **** 
  76:../../libdaisy//src/util/MappedValue.h ****     ~MappedFloatValue() override {}
 120              		.loc 5 76 5 is_stmt 1 view -0
 121              		.cfi_startproc
 122              		@ args = 0, pretend = 0, frame = 0
 123              		@ frame_needed = 0, uses_anonymous_args = 0
 124              		@ link register save eliminated.
 125              	.LBB1758:
 126              	.LBI1758:
  14:../../libdaisy//src/util/MappedValue.h **** 
 127              		.loc 5 14 13 view .LVU12
  14:../../libdaisy//src/util/MappedValue.h **** 
 128              		.loc 5 14 13 is_stmt 0 view .LVU13
 129              	.LBE1758:
 130              		.loc 5 76 35 view .LVU14
 131 0000 7047     		bx	lr
 132              		.cfi_endproc
 133              	.LFE2916:
 135              		.weak	_ZN5daisy16MappedFloatValueD1Ev
 136              		.thumb_set _ZN5daisy16MappedFloatValueD1Ev,_ZN5daisy16MappedFloatValueD2Ev
 137 0002 00BF     		.section	.text._ZN5daisy21MappedStringListValueD2Ev,"axG",%progbits,_ZN5daisy21MappedStringListVal
 138              		.align	1
ARM GAS  /var/folders/wr/bk9txnv930v5t7d_4s42nmkm0000gq/T//ccJtZ1lc.s 			page 13


 139              		.p2align 2,,3
 140              		.weak	_ZN5daisy21MappedStringListValueD2Ev
 141              		.syntax unified
 142              		.thumb
 143              		.thumb_func
 144              		.fpu fpv5-d16
 146              	_ZN5daisy21MappedStringListValueD2Ev:
 147              	.LVL4:
 148              	.LFB2932:
  77:../../libdaisy//src/util/MappedValue.h **** 
  78:../../libdaisy//src/util/MappedValue.h ****     /** Returns the current value. */
  79:../../libdaisy//src/util/MappedValue.h ****     float Get() const { return value_; }
  80:../../libdaisy//src/util/MappedValue.h **** 
  81:../../libdaisy//src/util/MappedValue.h ****     /** Returns a const pointer to the current value. */
  82:../../libdaisy//src/util/MappedValue.h ****     const float* GetPtr() const { return &value_; }
  83:../../libdaisy//src/util/MappedValue.h **** 
  84:../../libdaisy//src/util/MappedValue.h ****     /** Sets the value, clamping it to the valid range. */
  85:../../libdaisy//src/util/MappedValue.h ****     void Set(float newValue);
  86:../../libdaisy//src/util/MappedValue.h **** 
  87:../../libdaisy//src/util/MappedValue.h ****     /** Returns the current value. */
  88:../../libdaisy//src/util/MappedValue.h ****     operator float() const { return value_; }
  89:../../libdaisy//src/util/MappedValue.h **** 
  90:../../libdaisy//src/util/MappedValue.h ****     /** Sets the value, clamping it to the valid range. */
  91:../../libdaisy//src/util/MappedValue.h ****     MappedFloatValue& operator=(float val)
  92:../../libdaisy//src/util/MappedValue.h ****     {
  93:../../libdaisy//src/util/MappedValue.h ****         Set(val);
  94:../../libdaisy//src/util/MappedValue.h ****         return *this;
  95:../../libdaisy//src/util/MappedValue.h ****     }
  96:../../libdaisy//src/util/MappedValue.h **** 
  97:../../libdaisy//src/util/MappedValue.h ****     // inherited form MappedValue
  98:../../libdaisy//src/util/MappedValue.h ****     void AppentToString(FixedCapStrBase<char>& string) const override;
  99:../../libdaisy//src/util/MappedValue.h **** 
 100:../../libdaisy//src/util/MappedValue.h ****     // inherited form MappedValue
 101:../../libdaisy//src/util/MappedValue.h ****     void ResetToDefault() override;
 102:../../libdaisy//src/util/MappedValue.h **** 
 103:../../libdaisy//src/util/MappedValue.h ****     // inherited form MappedValue
 104:../../libdaisy//src/util/MappedValue.h ****     float GetAs0to1() const override;
 105:../../libdaisy//src/util/MappedValue.h **** 
 106:../../libdaisy//src/util/MappedValue.h ****     // inherited form MappedValue
 107:../../libdaisy//src/util/MappedValue.h ****     void SetFrom0to1(float normalizedValue0to1) override;
 108:../../libdaisy//src/util/MappedValue.h **** 
 109:../../libdaisy//src/util/MappedValue.h ****     /** Steps the 0..1 normalized representation of the value up or down
 110:../../libdaisy//src/util/MappedValue.h ****      *  in 1% or 5% steps.
 111:../../libdaisy//src/util/MappedValue.h ****      */
 112:../../libdaisy//src/util/MappedValue.h ****     void Step(int16_t numStepsUp, bool useCoarseStepSize) override;
 113:../../libdaisy//src/util/MappedValue.h **** 
 114:../../libdaisy//src/util/MappedValue.h ****   private:
 115:../../libdaisy//src/util/MappedValue.h ****     float                  value_;
 116:../../libdaisy//src/util/MappedValue.h ****     const float            min_;
 117:../../libdaisy//src/util/MappedValue.h ****     const float            max_;
 118:../../libdaisy//src/util/MappedValue.h ****     const float            default_;
 119:../../libdaisy//src/util/MappedValue.h ****     Mapping                mapping_;
 120:../../libdaisy//src/util/MappedValue.h ****     const char*            unitStr_;
 121:../../libdaisy//src/util/MappedValue.h ****     const uint8_t          numDecimals_;
 122:../../libdaisy//src/util/MappedValue.h ****     const bool             forceSign_;
 123:../../libdaisy//src/util/MappedValue.h ****     static constexpr float coarseStepSize0to1_ = 0.05f;
 124:../../libdaisy//src/util/MappedValue.h ****     static constexpr float fineStepSize0to1_   = 0.01f;
ARM GAS  /var/folders/wr/bk9txnv930v5t7d_4s42nmkm0000gq/T//ccJtZ1lc.s 			page 14


 125:../../libdaisy//src/util/MappedValue.h **** };
 126:../../libdaisy//src/util/MappedValue.h **** 
 127:../../libdaisy//src/util/MappedValue.h **** /** @brief A `MappedValue` that maps an int value linearly.
 128:../../libdaisy//src/util/MappedValue.h ****  *  @author jelliesen
 129:../../libdaisy//src/util/MappedValue.h ****  *  @addtogroup utility
 130:../../libdaisy//src/util/MappedValue.h ****  */
 131:../../libdaisy//src/util/MappedValue.h **** class MappedIntValue : public MappedValue
 132:../../libdaisy//src/util/MappedValue.h **** {
 133:../../libdaisy//src/util/MappedValue.h ****   public:
 134:../../libdaisy//src/util/MappedValue.h ****     /** Creates a MappedIntValue.
 135:../../libdaisy//src/util/MappedValue.h ****      * @param min             The lower end of the range of possible values
 136:../../libdaisy//src/util/MappedValue.h ****      * @param max             The upper end of the range of possible values
 137:../../libdaisy//src/util/MappedValue.h ****      * @param defaultValue    The default value
 138:../../libdaisy//src/util/MappedValue.h ****      * @param stepSizeFine    A fine step size to use in the `Step()` function
 139:../../libdaisy//src/util/MappedValue.h ****      * @param stepSizeCoarse  A coarse step size to use in the `Step()` function
 140:../../libdaisy//src/util/MappedValue.h ****      * @param unitStr         A string for the unit, e.g. "Hz"
 141:../../libdaisy//src/util/MappedValue.h ****      * @param forceSign       Controls whether `AppendToString()` always prints the sign, 
 142:../../libdaisy//src/util/MappedValue.h ****      *                        even for positive numbers
 143:../../libdaisy//src/util/MappedValue.h ****      */
 144:../../libdaisy//src/util/MappedValue.h ****     MappedIntValue(int         min,
 145:../../libdaisy//src/util/MappedValue.h ****                    int         max,
 146:../../libdaisy//src/util/MappedValue.h ****                    int         defaultValue,
 147:../../libdaisy//src/util/MappedValue.h ****                    int         stepSizeFine,
 148:../../libdaisy//src/util/MappedValue.h ****                    int         stepSizeCoarse,
 149:../../libdaisy//src/util/MappedValue.h ****                    const char* unitStr   = "",
 150:../../libdaisy//src/util/MappedValue.h ****                    bool        forceSign = false);
 151:../../libdaisy//src/util/MappedValue.h **** 
 152:../../libdaisy//src/util/MappedValue.h ****     ~MappedIntValue() override {}
 153:../../libdaisy//src/util/MappedValue.h **** 
 154:../../libdaisy//src/util/MappedValue.h ****     /** Returns the current value. */
 155:../../libdaisy//src/util/MappedValue.h ****     int Get() const { return value_; }
 156:../../libdaisy//src/util/MappedValue.h **** 
 157:../../libdaisy//src/util/MappedValue.h ****     /** Returns a const pointer to the current value. */
 158:../../libdaisy//src/util/MappedValue.h ****     const int* GetPtr() const { return &value_; }
 159:../../libdaisy//src/util/MappedValue.h **** 
 160:../../libdaisy//src/util/MappedValue.h ****     /** Sets the value, clamping it to the valid range. */
 161:../../libdaisy//src/util/MappedValue.h ****     void Set(int newValue);
 162:../../libdaisy//src/util/MappedValue.h **** 
 163:../../libdaisy//src/util/MappedValue.h ****     /** Returns the current value. */
 164:../../libdaisy//src/util/MappedValue.h ****     operator int() const { return value_; }
 165:../../libdaisy//src/util/MappedValue.h **** 
 166:../../libdaisy//src/util/MappedValue.h ****     /** Sets the value, clamping it to the valid range. */
 167:../../libdaisy//src/util/MappedValue.h ****     MappedIntValue& operator=(int val)
 168:../../libdaisy//src/util/MappedValue.h ****     {
 169:../../libdaisy//src/util/MappedValue.h ****         Set(val);
 170:../../libdaisy//src/util/MappedValue.h ****         return *this;
 171:../../libdaisy//src/util/MappedValue.h ****     }
 172:../../libdaisy//src/util/MappedValue.h **** 
 173:../../libdaisy//src/util/MappedValue.h ****     // inherited form MappedValue
 174:../../libdaisy//src/util/MappedValue.h ****     void AppentToString(FixedCapStrBase<char>& string) const override;
 175:../../libdaisy//src/util/MappedValue.h **** 
 176:../../libdaisy//src/util/MappedValue.h ****     // inherited form MappedValue
 177:../../libdaisy//src/util/MappedValue.h ****     void ResetToDefault() override;
 178:../../libdaisy//src/util/MappedValue.h **** 
 179:../../libdaisy//src/util/MappedValue.h ****     // inherited form MappedValue
 180:../../libdaisy//src/util/MappedValue.h ****     float GetAs0to1() const override;
 181:../../libdaisy//src/util/MappedValue.h **** 
ARM GAS  /var/folders/wr/bk9txnv930v5t7d_4s42nmkm0000gq/T//ccJtZ1lc.s 			page 15


 182:../../libdaisy//src/util/MappedValue.h ****     // inherited form MappedValue
 183:../../libdaisy//src/util/MappedValue.h ****     void SetFrom0to1(float normalizedValue0to1) override;
 184:../../libdaisy//src/util/MappedValue.h **** 
 185:../../libdaisy//src/util/MappedValue.h ****     /** Steps the value up or down using the step sizes specified in the constructor. */
 186:../../libdaisy//src/util/MappedValue.h ****     void Step(int16_t numStepsUp, bool useCoarseStepSize) override;
 187:../../libdaisy//src/util/MappedValue.h **** 
 188:../../libdaisy//src/util/MappedValue.h ****   private:
 189:../../libdaisy//src/util/MappedValue.h ****     int         value_;
 190:../../libdaisy//src/util/MappedValue.h ****     const int   min_;
 191:../../libdaisy//src/util/MappedValue.h ****     const int   max_;
 192:../../libdaisy//src/util/MappedValue.h ****     const int   default_;
 193:../../libdaisy//src/util/MappedValue.h ****     const int   stepSizeFine_;
 194:../../libdaisy//src/util/MappedValue.h ****     const int   stepSizeCoarse_;
 195:../../libdaisy//src/util/MappedValue.h ****     const char* unitStr_;
 196:../../libdaisy//src/util/MappedValue.h ****     const bool  forceSign_;
 197:../../libdaisy//src/util/MappedValue.h **** };
 198:../../libdaisy//src/util/MappedValue.h **** /** @brief A `MappedValue` that maps an list of strings linearly.
 199:../../libdaisy//src/util/MappedValue.h ****  *  @author jelliesen
 200:../../libdaisy//src/util/MappedValue.h ****  *  @addtogroup utility
 201:../../libdaisy//src/util/MappedValue.h ****  */
 202:../../libdaisy//src/util/MappedValue.h **** class MappedStringListValue : public MappedValue
 203:../../libdaisy//src/util/MappedValue.h **** {
 204:../../libdaisy//src/util/MappedValue.h ****   public:
 205:../../libdaisy//src/util/MappedValue.h ****     /** Creates a MappedStringListValue.
 206:../../libdaisy//src/util/MappedValue.h ****      * @param itemStrings     An Array of strings, one for each possible item.
 207:../../libdaisy//src/util/MappedValue.h ****      * @param numItems        The number of possible items
 208:../../libdaisy//src/util/MappedValue.h ****      * @param defaultIndex    The default index
 209:../../libdaisy//src/util/MappedValue.h ****      */
 210:../../libdaisy//src/util/MappedValue.h ****     MappedStringListValue(const char** itemStrings,
 211:../../libdaisy//src/util/MappedValue.h ****                           uint16_t     numItems,
 212:../../libdaisy//src/util/MappedValue.h ****                           uint32_t     defaultIndex);
 213:../../libdaisy//src/util/MappedValue.h **** 
 214:../../libdaisy//src/util/MappedValue.h ****     ~MappedStringListValue() override {}
 149              		.loc 5 214 5 is_stmt 1 view -0
 150              		.cfi_startproc
 151              		@ args = 0, pretend = 0, frame = 0
 152              		@ frame_needed = 0, uses_anonymous_args = 0
 153              		@ link register save eliminated.
 154              	.LBB1759:
 155              	.LBI1759:
  14:../../libdaisy//src/util/MappedValue.h **** 
 156              		.loc 5 14 13 view .LVU16
  14:../../libdaisy//src/util/MappedValue.h **** 
 157              		.loc 5 14 13 is_stmt 0 view .LVU17
 158              	.LBE1759:
 159              		.loc 5 214 40 view .LVU18
 160 0000 7047     		bx	lr
 161              		.cfi_endproc
 162              	.LFE2932:
 164              		.weak	_ZN5daisy21MappedStringListValueD1Ev
 165              		.thumb_set _ZN5daisy21MappedStringListValueD1Ev,_ZN5daisy21MappedStringListValueD2Ev
 166 0002 00BF     		.section	.text._ZN5daisy9DaisySeedD2Ev,"axG",%progbits,_ZN5daisy9DaisySeedD5Ev,comdat
 167              		.align	1
 168              		.p2align 2,,3
 169              		.weak	_ZN5daisy9DaisySeedD2Ev
 170              		.syntax unified
 171              		.thumb
ARM GAS  /var/folders/wr/bk9txnv930v5t7d_4s42nmkm0000gq/T//ccJtZ1lc.s 			page 16


 172              		.thumb_func
 173              		.fpu fpv5-d16
 175              	_ZN5daisy9DaisySeedD2Ev:
 176              	.LVL5:
 177              	.LFB3006:
 178              		.file 6 "../../libdaisy//src/daisy_seed.h"
   1:../../libdaisy//src/daisy_seed.h **** #pragma once
   2:../../libdaisy//src/daisy_seed.h **** #ifndef DSY_SEED_H
   3:../../libdaisy//src/daisy_seed.h **** #define DSY_SEED_H
   4:../../libdaisy//src/daisy_seed.h **** 
   5:../../libdaisy//src/daisy_seed.h **** #include "daisy.h"
   6:../../libdaisy//src/daisy_seed.h **** 
   7:../../libdaisy//src/daisy_seed.h **** //Uncomment this out if you're still using the rev2 hardware
   8:../../libdaisy//src/daisy_seed.h **** //#define SEED_REV2
   9:../../libdaisy//src/daisy_seed.h **** 
  10:../../libdaisy//src/daisy_seed.h **** namespace daisy
  11:../../libdaisy//src/daisy_seed.h **** {
  12:../../libdaisy//src/daisy_seed.h **** /**
  13:../../libdaisy//src/daisy_seed.h ****    @brief This is the higher-level interface for the Daisy board. \n 
  14:../../libdaisy//src/daisy_seed.h ****     All basic peripheral configuration/initialization is setup here. \n
  15:../../libdaisy//src/daisy_seed.h **** 
  16:../../libdaisy//src/daisy_seed.h ****    @ingroup boards
  17:../../libdaisy//src/daisy_seed.h **** */
  18:../../libdaisy//src/daisy_seed.h **** class DaisySeed
  19:../../libdaisy//src/daisy_seed.h **** {
  20:../../libdaisy//src/daisy_seed.h ****   public:
  21:../../libdaisy//src/daisy_seed.h ****     DaisySeed() {}
  22:../../libdaisy//src/daisy_seed.h ****     ~DaisySeed() {}
 179              		.loc 6 22 5 is_stmt 1 view -0
 180              		.cfi_startproc
 181              		@ args = 0, pretend = 0, frame = 0
 182              		@ frame_needed = 0, uses_anonymous_args = 0
 183              		@ link register save eliminated.
 184              	.LBB1760:
 185              	.LBI1760:
 186              		.file 7 "../../libdaisy//src/sys/system.h"
   1:../../libdaisy//src/sys/system.h **** #ifndef DSY_SYSTEM_H
   2:../../libdaisy//src/sys/system.h **** #define DSY_SYSTEM_H
   3:../../libdaisy//src/sys/system.h **** 
   4:../../libdaisy//src/sys/system.h **** #ifndef UNIT_TEST // for unit tests, a dummy implementation is provided below
   5:../../libdaisy//src/sys/system.h **** 
   6:../../libdaisy//src/sys/system.h **** #include <cstdint>
   7:../../libdaisy//src/sys/system.h **** #include "per/tim.h"
   8:../../libdaisy//src/sys/system.h **** 
   9:../../libdaisy//src/sys/system.h **** namespace daisy
  10:../../libdaisy//src/sys/system.h **** {
  11:../../libdaisy//src/sys/system.h **** /** A handle for interacting with the Core System. 
  12:../../libdaisy//src/sys/system.h ****  ** This includes the Clock tree, MPU, global DMA initialization,
  13:../../libdaisy//src/sys/system.h ****  ** cache handling, and any other necessary global initiailzation
  14:../../libdaisy//src/sys/system.h ****  **
  15:../../libdaisy//src/sys/system.h ****  ** @author shensley
  16:../../libdaisy//src/sys/system.h ****  ** @addtogroup system
  17:../../libdaisy//src/sys/system.h ****  */
  18:../../libdaisy//src/sys/system.h **** class System
  19:../../libdaisy//src/sys/system.h **** {
  20:../../libdaisy//src/sys/system.h ****   public:
  21:../../libdaisy//src/sys/system.h ****     /** Contains settings for initializing the System */
ARM GAS  /var/folders/wr/bk9txnv930v5t7d_4s42nmkm0000gq/T//ccJtZ1lc.s 			page 17


  22:../../libdaisy//src/sys/system.h ****     struct Config
  23:../../libdaisy//src/sys/system.h ****     {
  24:../../libdaisy//src/sys/system.h ****         /** Specifies the system clock frequency that feeds APB/AHB clocks, etc. */
  25:../../libdaisy//src/sys/system.h ****         enum class SysClkFreq
  26:../../libdaisy//src/sys/system.h ****         {
  27:../../libdaisy//src/sys/system.h ****             FREQ_400MHZ,
  28:../../libdaisy//src/sys/system.h ****             FREQ_480MHZ,
  29:../../libdaisy//src/sys/system.h ****         };
  30:../../libdaisy//src/sys/system.h **** 
  31:../../libdaisy//src/sys/system.h ****         /** Method to call on the struct to set to defaults
  32:../../libdaisy//src/sys/system.h ****          ** CPU Freq set to 400MHz
  33:../../libdaisy//src/sys/system.h ****          ** Cache Enabled 
  34:../../libdaisy//src/sys/system.h ****          ** */
  35:../../libdaisy//src/sys/system.h ****         void Defaults()
  36:../../libdaisy//src/sys/system.h ****         {
  37:../../libdaisy//src/sys/system.h ****             cpu_freq    = SysClkFreq::FREQ_400MHZ;
  38:../../libdaisy//src/sys/system.h ****             use_dcache  = true;
  39:../../libdaisy//src/sys/system.h ****             use_icache  = true;
  40:../../libdaisy//src/sys/system.h ****             skip_clocks = false;
  41:../../libdaisy//src/sys/system.h ****         }
  42:../../libdaisy//src/sys/system.h **** 
  43:../../libdaisy//src/sys/system.h ****         /** Method to call on the struct to set to boost mode:
  44:../../libdaisy//src/sys/system.h ****          ** CPU Freq set to 480MHz
  45:../../libdaisy//src/sys/system.h ****          ** Cache Enabled 
  46:../../libdaisy//src/sys/system.h ****          ** */
  47:../../libdaisy//src/sys/system.h ****         void Boost()
  48:../../libdaisy//src/sys/system.h ****         {
  49:../../libdaisy//src/sys/system.h ****             cpu_freq    = SysClkFreq::FREQ_480MHZ;
  50:../../libdaisy//src/sys/system.h ****             use_dcache  = true;
  51:../../libdaisy//src/sys/system.h ****             use_icache  = true;
  52:../../libdaisy//src/sys/system.h ****             skip_clocks = false;
  53:../../libdaisy//src/sys/system.h ****         }
  54:../../libdaisy//src/sys/system.h **** 
  55:../../libdaisy//src/sys/system.h ****         SysClkFreq cpu_freq;
  56:../../libdaisy//src/sys/system.h ****         bool       use_dcache;
  57:../../libdaisy//src/sys/system.h ****         bool       use_icache;
  58:../../libdaisy//src/sys/system.h ****         bool       skip_clocks;
  59:../../libdaisy//src/sys/system.h ****     };
  60:../../libdaisy//src/sys/system.h **** 
  61:../../libdaisy//src/sys/system.h ****     /** Describes the different regions of memory available to the Daisy
  62:../../libdaisy//src/sys/system.h ****      * 
  63:../../libdaisy//src/sys/system.h ****      */
  64:../../libdaisy//src/sys/system.h ****     enum MemoryRegion
  65:../../libdaisy//src/sys/system.h ****     {
  66:../../libdaisy//src/sys/system.h ****         INTERNAL_FLASH = 0,
  67:../../libdaisy//src/sys/system.h ****         ITCMRAM,
  68:../../libdaisy//src/sys/system.h ****         DTCMRAM,
  69:../../libdaisy//src/sys/system.h ****         SRAM_D1,
  70:../../libdaisy//src/sys/system.h ****         SRAM_D2,
  71:../../libdaisy//src/sys/system.h ****         SRAM_D3,
  72:../../libdaisy//src/sys/system.h ****         SDRAM,
  73:../../libdaisy//src/sys/system.h ****         QSPI,
  74:../../libdaisy//src/sys/system.h ****         INVALID_ADDRESS,
  75:../../libdaisy//src/sys/system.h ****     };
  76:../../libdaisy//src/sys/system.h **** 
  77:../../libdaisy//src/sys/system.h ****     System() {}
  78:../../libdaisy//src/sys/system.h ****     ~System() {}
ARM GAS  /var/folders/wr/bk9txnv930v5t7d_4s42nmkm0000gq/T//ccJtZ1lc.s 			page 18


 187              		.loc 7 78 5 view .LVU20
 188              		.loc 7 78 5 is_stmt 0 view .LVU21
 189              	.LBE1760:
 190              	.LBB1761:
 191              	.LBI1761:
 192              		.file 8 "../../libdaisy//src/hid/usb.h"
   1:../../libdaisy//src/hid/usb.h **** #pragma once
   2:../../libdaisy//src/hid/usb.h **** #ifndef DSY_HID_USB_H
   3:../../libdaisy//src/hid/usb.h **** #define DSY_HID_USB_H
   4:../../libdaisy//src/hid/usb.h **** #include <stdint.h>
   5:../../libdaisy//src/hid/usb.h **** #include <stdlib.h>
   6:../../libdaisy//src/hid/usb.h **** 
   7:../../libdaisy//src/hid/usb.h **** namespace daisy
   8:../../libdaisy//src/hid/usb.h **** /** @addtogroup externals
   9:../../libdaisy//src/hid/usb.h ****     @{
  10:../../libdaisy//src/hid/usb.h **** */
  11:../../libdaisy//src/hid/usb.h **** 
  12:../../libdaisy//src/hid/usb.h **** {
  13:../../libdaisy//src/hid/usb.h **** /** 
  14:../../libdaisy//src/hid/usb.h ****     @brief Interface for initializing and using the USB Peripherals on the daisy
  15:../../libdaisy//src/hid/usb.h ****     @author Stephen Hensley
  16:../../libdaisy//src/hid/usb.h ****     @date December 2019
  17:../../libdaisy//src/hid/usb.h **** */
  18:../../libdaisy//src/hid/usb.h **** class UsbHandle
  19:../../libdaisy//src/hid/usb.h **** {
  20:../../libdaisy//src/hid/usb.h ****   public:
  21:../../libdaisy//src/hid/usb.h ****     /** Return values for USBHandle Functions */
  22:../../libdaisy//src/hid/usb.h ****     enum class Result
  23:../../libdaisy//src/hid/usb.h ****     {
  24:../../libdaisy//src/hid/usb.h ****         OK,
  25:../../libdaisy//src/hid/usb.h ****         ERR,
  26:../../libdaisy//src/hid/usb.h ****     };
  27:../../libdaisy//src/hid/usb.h **** 
  28:../../libdaisy//src/hid/usb.h ****     /** Specified which of the two USB Peripherals to initialize. */
  29:../../libdaisy//src/hid/usb.h ****     enum UsbPeriph
  30:../../libdaisy//src/hid/usb.h ****     {
  31:../../libdaisy//src/hid/usb.h ****         FS_INTERNAL, /**< Internal pin */
  32:../../libdaisy//src/hid/usb.h ****         FS_EXTERNAL, /**< FS External D+ pin is Pin 38 (GPIO32). FS External D- pin is Pin 37 (GPIO
  33:../../libdaisy//src/hid/usb.h ****         FS_BOTH,     /**< Both */
  34:../../libdaisy//src/hid/usb.h ****     };
  35:../../libdaisy//src/hid/usb.h **** 
  36:../../libdaisy//src/hid/usb.h **** 
  37:../../libdaisy//src/hid/usb.h ****     /** Function called upon reception of a buffer */
  38:../../libdaisy//src/hid/usb.h ****     typedef void (*ReceiveCallback)(uint8_t* buff, uint32_t* len);
  39:../../libdaisy//src/hid/usb.h **** 
  40:../../libdaisy//src/hid/usb.h ****     UsbHandle() {}
  41:../../libdaisy//src/hid/usb.h **** 
  42:../../libdaisy//src/hid/usb.h ****     ~UsbHandle() {}
 193              		.loc 8 42 5 is_stmt 1 view .LVU22
 194              		.loc 8 42 5 is_stmt 0 view .LVU23
 195              	.LBE1761:
 196              	.LBB1762:
 197              	.LBI1762:
 198              		.file 9 "../../libdaisy//src/per/adc.h"
   1:../../libdaisy//src/per/adc.h **** #pragma once
   2:../../libdaisy//src/per/adc.h **** #ifndef DSY_ADC_H
   3:../../libdaisy//src/per/adc.h **** #define DSY_ADC_H /**< Macro */
ARM GAS  /var/folders/wr/bk9txnv930v5t7d_4s42nmkm0000gq/T//ccJtZ1lc.s 			page 19


   4:../../libdaisy//src/per/adc.h **** #include <stdint.h>
   5:../../libdaisy//src/per/adc.h **** #include <stdlib.h>
   6:../../libdaisy//src/per/adc.h **** #include "daisy_core.h"
   7:../../libdaisy//src/per/adc.h **** #include "per/gpio.h"
   8:../../libdaisy//src/per/adc.h **** 
   9:../../libdaisy//src/per/adc.h **** #define DSY_ADC_MAX_CHANNELS 16 /**< Maximum number of ADC channels */
  10:../../libdaisy//src/per/adc.h **** 
  11:../../libdaisy//src/per/adc.h **** namespace daisy
  12:../../libdaisy//src/per/adc.h **** {
  13:../../libdaisy//src/per/adc.h **** /** @addtogroup analog_digital_conversion
  14:../../libdaisy//src/per/adc.h ****     @{
  15:../../libdaisy//src/per/adc.h **** */
  16:../../libdaisy//src/per/adc.h **** 
  17:../../libdaisy//src/per/adc.h **** /* While there may not be many configuration options here,
  18:../../libdaisy//src/per/adc.h **** using a struct like this allows us to add more configuration
  19:../../libdaisy//src/per/adc.h **** later without breaking existing functionality.
  20:../../libdaisy//src/per/adc.h **** */
  21:../../libdaisy//src/per/adc.h **** 
  22:../../libdaisy//src/per/adc.h **** /** Configuration Structure for a given channel */
  23:../../libdaisy//src/per/adc.h **** struct AdcChannelConfig
  24:../../libdaisy//src/per/adc.h **** {
  25:../../libdaisy//src/per/adc.h ****     /** Which pin to use for multiplexing */
  26:../../libdaisy//src/per/adc.h ****     enum MuxPin
  27:../../libdaisy//src/per/adc.h ****     {
  28:../../libdaisy//src/per/adc.h ****         MUX_SEL_0,    /**< & */
  29:../../libdaisy//src/per/adc.h ****         MUX_SEL_1,    /**< & */
  30:../../libdaisy//src/per/adc.h ****         MUX_SEL_2,    /**< & */
  31:../../libdaisy//src/per/adc.h ****         MUX_SEL_LAST, /**< & */
  32:../../libdaisy//src/per/adc.h ****     };
  33:../../libdaisy//src/per/adc.h **** 
  34:../../libdaisy//src/per/adc.h ****     /** Initializes a single ADC pin as an ADC. 
  35:../../libdaisy//src/per/adc.h ****     \param pin Pin to init.
  36:../../libdaisy//src/per/adc.h ****      */
  37:../../libdaisy//src/per/adc.h ****     void InitSingle(dsy_gpio_pin pin);
  38:../../libdaisy//src/per/adc.h **** 
  39:../../libdaisy//src/per/adc.h ****     /** 
  40:../../libdaisy//src/per/adc.h ****     Initializes a single ADC pin as a Multiplexed ADC.
  41:../../libdaisy//src/per/adc.h ****     Requires a CD405X Multiplexer connected to the pin.
  42:../../libdaisy//src/per/adc.h ****     You only need to supply the mux pins that are required,
  43:../../libdaisy//src/per/adc.h ****     e.g. a 4052 mux would only require mux_0 and mux_1.
  44:../../libdaisy//src/per/adc.h ****     Internal Callbacks handle the pin addressing.
  45:../../libdaisy//src/per/adc.h ****     \param mux_channels must be 1-8
  46:../../libdaisy//src/per/adc.h ****     \param mux_0 First mux pin
  47:../../libdaisy//src/per/adc.h ****     \param mux_1 Second mux pin
  48:../../libdaisy//src/per/adc.h ****     \param mux_2 Third mux pin
  49:../../libdaisy//src/per/adc.h ****     \param adc_pin &
  50:../../libdaisy//src/per/adc.h ****     */
  51:../../libdaisy//src/per/adc.h ****     void InitMux(dsy_gpio_pin adc_pin,
  52:../../libdaisy//src/per/adc.h ****                  size_t       mux_channels,
  53:../../libdaisy//src/per/adc.h ****                  dsy_gpio_pin mux_0,
  54:../../libdaisy//src/per/adc.h ****                  dsy_gpio_pin mux_1 = {DSY_GPIOX, 0},
  55:../../libdaisy//src/per/adc.h ****                  dsy_gpio_pin mux_2 = {DSY_GPIOX, 0});
  56:../../libdaisy//src/per/adc.h **** 
  57:../../libdaisy//src/per/adc.h ****     dsy_gpio pin_;                   /**< & */
  58:../../libdaisy//src/per/adc.h ****     dsy_gpio mux_pin_[MUX_SEL_LAST]; /**< & */
  59:../../libdaisy//src/per/adc.h ****     uint8_t  mux_channels_;          /**< & */
  60:../../libdaisy//src/per/adc.h **** };
ARM GAS  /var/folders/wr/bk9txnv930v5t7d_4s42nmkm0000gq/T//ccJtZ1lc.s 			page 20


  61:../../libdaisy//src/per/adc.h **** 
  62:../../libdaisy//src/per/adc.h **** /**
  63:../../libdaisy//src/per/adc.h ****    Handler for analog to digital conversion
  64:../../libdaisy//src/per/adc.h **** */
  65:../../libdaisy//src/per/adc.h **** class AdcHandle
  66:../../libdaisy//src/per/adc.h **** {
  67:../../libdaisy//src/per/adc.h ****   public:
  68:../../libdaisy//src/per/adc.h ****     /** Supported oversampling amounts */
  69:../../libdaisy//src/per/adc.h ****     enum OverSampling
  70:../../libdaisy//src/per/adc.h ****     {
  71:../../libdaisy//src/per/adc.h ****         OVS_NONE, /**< & */
  72:../../libdaisy//src/per/adc.h ****         OVS_4,    /**< & */
  73:../../libdaisy//src/per/adc.h ****         OVS_8,    /**< & */
  74:../../libdaisy//src/per/adc.h ****         OVS_16,   /**< & */
  75:../../libdaisy//src/per/adc.h ****         OVS_32,   /**< & */
  76:../../libdaisy//src/per/adc.h ****         OVS_64,   /**< & */
  77:../../libdaisy//src/per/adc.h ****         OVS_128,  /**< & */
  78:../../libdaisy//src/per/adc.h ****         OVS_256,  /**< & */
  79:../../libdaisy//src/per/adc.h ****         OVS_512,  /**< & */
  80:../../libdaisy//src/per/adc.h ****         OVS_1024, /**< & */
  81:../../libdaisy//src/per/adc.h ****         OVS_LAST, /**< & */
  82:../../libdaisy//src/per/adc.h ****     };
  83:../../libdaisy//src/per/adc.h **** 
  84:../../libdaisy//src/per/adc.h ****     AdcHandle() {}
  85:../../libdaisy//src/per/adc.h ****     ~AdcHandle() {}
 199              		.loc 9 85 5 is_stmt 1 view .LVU24
 200              		.loc 9 85 5 is_stmt 0 view .LVU25
 201              	.LBE1762:
 202              	.LBB1763:
 203              	.LBI1763:
 204              		.file 10 "../../libdaisy//src/hid/audio.h"
   1:../../libdaisy//src/hid/audio.h **** #ifndef DSY_AUDIO_H
   2:../../libdaisy//src/hid/audio.h **** #define DSY_AUDIO_H /**< & */
   3:../../libdaisy//src/hid/audio.h **** 
   4:../../libdaisy//src/hid/audio.h **** #include "per/sai.h"
   5:../../libdaisy//src/hid/audio.h **** 
   6:../../libdaisy//src/hid/audio.h **** namespace daisy
   7:../../libdaisy//src/hid/audio.h **** {
   8:../../libdaisy//src/hid/audio.h **** class AudioHandle
   9:../../libdaisy//src/hid/audio.h **** {
  10:../../libdaisy//src/hid/audio.h ****   public:
  11:../../libdaisy//src/hid/audio.h ****     /** Manually configurable details about the Audio Engine */
  12:../../libdaisy//src/hid/audio.h ****     /** TODO: Figure out how to get samplerate in here. */
  13:../../libdaisy//src/hid/audio.h ****     struct Config
  14:../../libdaisy//src/hid/audio.h ****     {
  15:../../libdaisy//src/hid/audio.h ****         size_t                        blocksize;
  16:../../libdaisy//src/hid/audio.h ****         SaiHandle::Config::SampleRate samplerate;
  17:../../libdaisy//src/hid/audio.h ****         float                         postgain;
  18:../../libdaisy//src/hid/audio.h ****     };
  19:../../libdaisy//src/hid/audio.h **** 
  20:../../libdaisy//src/hid/audio.h ****     enum class Result
  21:../../libdaisy//src/hid/audio.h ****     {
  22:../../libdaisy//src/hid/audio.h ****         OK,
  23:../../libdaisy//src/hid/audio.h ****         ERR,
  24:../../libdaisy//src/hid/audio.h ****     };
  25:../../libdaisy//src/hid/audio.h **** 
  26:../../libdaisy//src/hid/audio.h ****     /** Non-Interleaving input buffer
ARM GAS  /var/folders/wr/bk9txnv930v5t7d_4s42nmkm0000gq/T//ccJtZ1lc.s 			page 21


  27:../../libdaisy//src/hid/audio.h ****      * Buffer arranged by float[chn][sample] 
  28:../../libdaisy//src/hid/audio.h ****      * const so that the user can't modify the input
  29:../../libdaisy//src/hid/audio.h ****     */
  30:../../libdaisy//src/hid/audio.h ****     typedef const float* const* InputBuffer;
  31:../../libdaisy//src/hid/audio.h **** 
  32:../../libdaisy//src/hid/audio.h ****     /** Non-Interleaving output buffer
  33:../../libdaisy//src/hid/audio.h ****      * Arranged by float[chn][sample] 
  34:../../libdaisy//src/hid/audio.h ****     */
  35:../../libdaisy//src/hid/audio.h ****     typedef float** OutputBuffer;
  36:../../libdaisy//src/hid/audio.h **** 
  37:../../libdaisy//src/hid/audio.h ****     /** Type for a Non-Interleaving audio callback 
  38:../../libdaisy//src/hid/audio.h ****    * Non-Interleaving audio callbacks in daisy will be of this type
  39:../../libdaisy//src/hid/audio.h ****   */
  40:../../libdaisy//src/hid/audio.h ****     typedef void (*AudioCallback)(InputBuffer  in,
  41:../../libdaisy//src/hid/audio.h ****                                   OutputBuffer out,
  42:../../libdaisy//src/hid/audio.h ****                                   size_t       size);
  43:../../libdaisy//src/hid/audio.h **** 
  44:../../libdaisy//src/hid/audio.h ****     /** Interleaving Input buffer
  45:../../libdaisy//src/hid/audio.h ****      ** audio is prepared as { L0, R0, L1, R1, . . . LN, RN }]
  46:../../libdaisy//src/hid/audio.h ****      ** this is const, as the user shouldn't modify it
  47:../../libdaisy//src/hid/audio.h ****     */
  48:../../libdaisy//src/hid/audio.h ****     typedef const float* InterleavingInputBuffer;
  49:../../libdaisy//src/hid/audio.h **** 
  50:../../libdaisy//src/hid/audio.h ****     /** Interleaving Output buffer 
  51:../../libdaisy//src/hid/audio.h ****      ** audio is prepared as { L0, R0, L1, R1, . . . LN, RN }
  52:../../libdaisy//src/hid/audio.h ****     */
  53:../../libdaisy//src/hid/audio.h ****     typedef float* InterleavingOutputBuffer;
  54:../../libdaisy//src/hid/audio.h **** 
  55:../../libdaisy//src/hid/audio.h ****     /** Interleaving Audio Callback 
  56:../../libdaisy//src/hid/audio.h ****    * Interleaving audio callbacks in daisy must be of this type
  57:../../libdaisy//src/hid/audio.h ****   */
  58:../../libdaisy//src/hid/audio.h ****     typedef void (*InterleavingAudioCallback)(InterleavingInputBuffer  in,
  59:../../libdaisy//src/hid/audio.h ****                                               InterleavingOutputBuffer out,
  60:../../libdaisy//src/hid/audio.h ****                                               size_t                   size);
  61:../../libdaisy//src/hid/audio.h **** 
  62:../../libdaisy//src/hid/audio.h ****     AudioHandle() : pimpl_(nullptr) {}
  63:../../libdaisy//src/hid/audio.h ****     ~AudioHandle() {}
 205              		.loc 10 63 5 is_stmt 1 view .LVU26
 206              		.loc 10 63 5 is_stmt 0 view .LVU27
 207              	.LBE1763:
 208              		.loc 6 22 19 view .LVU28
 209 0000 7047     		bx	lr
 210              		.cfi_endproc
 211              	.LFE3006:
 213              		.weak	_ZN5daisy9DaisySeedD1Ev
 214              		.thumb_set _ZN5daisy9DaisySeedD1Ev,_ZN5daisy9DaisySeedD2Ev
 215 0002 00BF     		.section	.text._ZN7daisysp10OscillatorD2Ev,"axG",%progbits,_ZN7daisysp10OscillatorD5Ev,comdat
 216              		.align	1
 217              		.p2align 2,,3
 218              		.weak	_ZN7daisysp10OscillatorD2Ev
 219              		.syntax unified
 220              		.thumb
 221              		.thumb_func
 222              		.fpu fpv5-d16
 224              	_ZN7daisysp10OscillatorD2Ev:
 225              	.LVL6:
 226              	.LFB3741:
ARM GAS  /var/folders/wr/bk9txnv930v5t7d_4s42nmkm0000gq/T//ccJtZ1lc.s 			page 22


 227              		.file 11 "../../daisysp//Source/Synthesis/oscillator.h"
   1:../../daisysp//Source/Synthesis/oscillator.h **** #pragma once
   2:../../daisysp//Source/Synthesis/oscillator.h **** #ifndef DSY_OSCILLATOR_H
   3:../../daisysp//Source/Synthesis/oscillator.h **** #define DSY_OSCILLATOR_H
   4:../../daisysp//Source/Synthesis/oscillator.h **** #include <stdint.h>
   5:../../daisysp//Source/Synthesis/oscillator.h **** #include "Utility/dsp.h"
   6:../../daisysp//Source/Synthesis/oscillator.h **** #ifdef __cplusplus
   7:../../daisysp//Source/Synthesis/oscillator.h **** 
   8:../../daisysp//Source/Synthesis/oscillator.h **** namespace daisysp
   9:../../daisysp//Source/Synthesis/oscillator.h **** {
  10:../../daisysp//Source/Synthesis/oscillator.h **** /** Synthesis of several waveforms, including polyBLEP bandlimited waveforms.
  11:../../daisysp//Source/Synthesis/oscillator.h **** */
  12:../../daisysp//Source/Synthesis/oscillator.h **** class Oscillator
  13:../../daisysp//Source/Synthesis/oscillator.h **** {
  14:../../daisysp//Source/Synthesis/oscillator.h ****   public:
  15:../../daisysp//Source/Synthesis/oscillator.h ****     Oscillator() {}
  16:../../daisysp//Source/Synthesis/oscillator.h ****     ~Oscillator() {}
 228              		.loc 11 16 5 is_stmt 1 view -0
 229              		.cfi_startproc
 230              		@ args = 0, pretend = 0, frame = 0
 231              		@ frame_needed = 0, uses_anonymous_args = 0
 232              		@ link register save eliminated.
 233              		.loc 11 16 20 is_stmt 0 view .LVU30
 234 0000 7047     		bx	lr
 235              		.cfi_endproc
 236              	.LFE3741:
 238              		.weak	_ZN7daisysp10OscillatorD1Ev
 239              		.thumb_set _ZN7daisysp10OscillatorD1Ev,_ZN7daisysp10OscillatorD2Ev
 240 0002 00BF     		.section	.text._ZN7daisysp6ChorusD2Ev,"axG",%progbits,_ZN7daisysp6ChorusD5Ev,comdat
 241              		.align	1
 242              		.p2align 2,,3
 243              		.weak	_ZN7daisysp6ChorusD2Ev
 244              		.syntax unified
 245              		.thumb
 246              		.thumb_func
 247              		.fpu fpv5-d16
 249              	_ZN7daisysp6ChorusD2Ev:
 250              	.LVL7:
 251              	.LFB3914:
 252              		.file 12 "../../daisysp//Source/Effects/chorus.h"
   1:../../daisysp//Source/Effects/chorus.h **** #pragma once
   2:../../daisysp//Source/Effects/chorus.h **** #ifndef DSY_CHORUS_H
   3:../../daisysp//Source/Effects/chorus.h **** #define DSY_CHORUS_H
   4:../../daisysp//Source/Effects/chorus.h **** #ifdef __cplusplus
   5:../../daisysp//Source/Effects/chorus.h **** 
   6:../../daisysp//Source/Effects/chorus.h **** #include <stdint.h>
   7:../../daisysp//Source/Effects/chorus.h **** #include "Utility/delayline.h"
   8:../../daisysp//Source/Effects/chorus.h **** 
   9:../../daisysp//Source/Effects/chorus.h **** /** @file chorus.h */
  10:../../daisysp//Source/Effects/chorus.h **** 
  11:../../daisysp//Source/Effects/chorus.h **** namespace daisysp
  12:../../daisysp//Source/Effects/chorus.h **** {
  13:../../daisysp//Source/Effects/chorus.h **** /**  
  14:../../daisysp//Source/Effects/chorus.h ****     @brief Single Chorus engine. Used in Chorus.
  15:../../daisysp//Source/Effects/chorus.h ****     @author Ben Sergentanis
  16:../../daisysp//Source/Effects/chorus.h **** */
  17:../../daisysp//Source/Effects/chorus.h **** class ChorusEngine
ARM GAS  /var/folders/wr/bk9txnv930v5t7d_4s42nmkm0000gq/T//ccJtZ1lc.s 			page 23


  18:../../daisysp//Source/Effects/chorus.h **** {
  19:../../daisysp//Source/Effects/chorus.h ****   public:
  20:../../daisysp//Source/Effects/chorus.h ****     ChorusEngine() {}
  21:../../daisysp//Source/Effects/chorus.h ****     ~ChorusEngine() {}
  22:../../daisysp//Source/Effects/chorus.h **** 
  23:../../daisysp//Source/Effects/chorus.h ****     /** Initialize the module
  24:../../daisysp//Source/Effects/chorus.h ****         \param sample_rate Audio engine sample rate.
  25:../../daisysp//Source/Effects/chorus.h ****     */
  26:../../daisysp//Source/Effects/chorus.h ****     void Init(float sample_rate);
  27:../../daisysp//Source/Effects/chorus.h **** 
  28:../../daisysp//Source/Effects/chorus.h ****     /** Get the next sample
  29:../../daisysp//Source/Effects/chorus.h ****         \param in Sample to process
  30:../../daisysp//Source/Effects/chorus.h ****     */
  31:../../daisysp//Source/Effects/chorus.h ****     float Process(float in);
  32:../../daisysp//Source/Effects/chorus.h **** 
  33:../../daisysp//Source/Effects/chorus.h ****     /** How much to modulate the delay by.
  34:../../daisysp//Source/Effects/chorus.h ****         \param depth Works 0-1.
  35:../../daisysp//Source/Effects/chorus.h ****     */
  36:../../daisysp//Source/Effects/chorus.h ****     void SetLfoDepth(float depth);
  37:../../daisysp//Source/Effects/chorus.h **** 
  38:../../daisysp//Source/Effects/chorus.h ****     /** Set lfo frequency.
  39:../../daisysp//Source/Effects/chorus.h ****         \param freq Frequency in Hz
  40:../../daisysp//Source/Effects/chorus.h ****     */
  41:../../daisysp//Source/Effects/chorus.h ****     void SetLfoFreq(float freq);
  42:../../daisysp//Source/Effects/chorus.h **** 
  43:../../daisysp//Source/Effects/chorus.h ****     /** Set the internal delay rate. 
  44:../../daisysp//Source/Effects/chorus.h ****         \param delay Tuned for 0-1. Maps to .1 to 50 ms.
  45:../../daisysp//Source/Effects/chorus.h ****     */
  46:../../daisysp//Source/Effects/chorus.h ****     void SetDelay(float delay);
  47:../../daisysp//Source/Effects/chorus.h **** 
  48:../../daisysp//Source/Effects/chorus.h ****     /** Set the delay time in ms.
  49:../../daisysp//Source/Effects/chorus.h ****         \param ms Delay time in ms, 0 to 50 ms.
  50:../../daisysp//Source/Effects/chorus.h ****     */
  51:../../daisysp//Source/Effects/chorus.h ****     void SetDelayMs(float ms);
  52:../../daisysp//Source/Effects/chorus.h **** 
  53:../../daisysp//Source/Effects/chorus.h ****     /** Set the feedback amount.
  54:../../daisysp//Source/Effects/chorus.h ****         \param feedback Amount from 0-1.
  55:../../daisysp//Source/Effects/chorus.h ****     */
  56:../../daisysp//Source/Effects/chorus.h ****     void SetFeedback(float feedback);
  57:../../daisysp//Source/Effects/chorus.h **** 
  58:../../daisysp//Source/Effects/chorus.h ****   private:
  59:../../daisysp//Source/Effects/chorus.h ****     float                    sample_rate_;
  60:../../daisysp//Source/Effects/chorus.h ****     static constexpr int32_t kDelayLength
  61:../../daisysp//Source/Effects/chorus.h ****         = 2400; // 50 ms at 48kHz = .05 * 48000
  62:../../daisysp//Source/Effects/chorus.h **** 
  63:../../daisysp//Source/Effects/chorus.h ****     //triangle lfos
  64:../../daisysp//Source/Effects/chorus.h ****     float lfo_phase_;
  65:../../daisysp//Source/Effects/chorus.h ****     float lfo_freq_;
  66:../../daisysp//Source/Effects/chorus.h ****     float lfo_amp_;
  67:../../daisysp//Source/Effects/chorus.h **** 
  68:../../daisysp//Source/Effects/chorus.h ****     float feedback_;
  69:../../daisysp//Source/Effects/chorus.h **** 
  70:../../daisysp//Source/Effects/chorus.h ****     float delay_;
  71:../../daisysp//Source/Effects/chorus.h **** 
  72:../../daisysp//Source/Effects/chorus.h ****     DelayLine<float, kDelayLength> del_;
  73:../../daisysp//Source/Effects/chorus.h **** 
  74:../../daisysp//Source/Effects/chorus.h ****     float ProcessLfo();
ARM GAS  /var/folders/wr/bk9txnv930v5t7d_4s42nmkm0000gq/T//ccJtZ1lc.s 			page 24


  75:../../daisysp//Source/Effects/chorus.h **** };
  76:../../daisysp//Source/Effects/chorus.h **** 
  77:../../daisysp//Source/Effects/chorus.h **** //wraps up all of the chorus engines
  78:../../daisysp//Source/Effects/chorus.h **** /**  
  79:../../daisysp//Source/Effects/chorus.h ****     @brief Chorus Effect.
  80:../../daisysp//Source/Effects/chorus.h ****     @author Ben Sergentanis
  81:../../daisysp//Source/Effects/chorus.h ****     @date Jan 2021
  82:../../daisysp//Source/Effects/chorus.h ****     Based on https://www.izotope.com/en/learn/understanding-chorus-flangers-and-phasers-in-audio-pr
  83:../../daisysp//Source/Effects/chorus.h ****     and https://www.researchgate.net/publication/236629475_Implementing_Professional_Audio_Effects_
  84:../../daisysp//Source/Effects/chorus.h **** */
  85:../../daisysp//Source/Effects/chorus.h **** class Chorus
  86:../../daisysp//Source/Effects/chorus.h **** {
  87:../../daisysp//Source/Effects/chorus.h ****   public:
  88:../../daisysp//Source/Effects/chorus.h ****     Chorus() {}
  89:../../daisysp//Source/Effects/chorus.h ****     ~Chorus() {}
 253              		.loc 12 89 5 is_stmt 1 view -0
 254              		.cfi_startproc
 255              		@ args = 0, pretend = 0, frame = 0
 256              		@ frame_needed = 0, uses_anonymous_args = 0
 257              		@ link register save eliminated.
 258              		.loc 12 89 16 is_stmt 0 view .LVU32
 259 0000 7047     		bx	lr
 260              		.cfi_endproc
 261              	.LFE3914:
 263              		.weak	_ZN7daisysp6ChorusD1Ev
 264              		.thumb_set _ZN7daisysp6ChorusD1Ev,_ZN7daisysp6ChorusD2Ev
 265 0002 00BF     		.section	.text._ZN7daisysp9OverdriveD2Ev,"axG",%progbits,_ZN7daisysp9OverdriveD5Ev,comdat
 266              		.align	1
 267              		.p2align 2,,3
 268              		.weak	_ZN7daisysp9OverdriveD2Ev
 269              		.syntax unified
 270              		.thumb
 271              		.thumb_func
 272              		.fpu fpv5-d16
 274              	_ZN7daisysp9OverdriveD2Ev:
 275              	.LVL8:
 276              	.LFB3938:
 277              		.file 13 "../../daisysp//Source/Effects/overdrive.h"
   1:../../daisysp//Source/Effects/overdrive.h **** #pragma once
   2:../../daisysp//Source/Effects/overdrive.h **** #ifndef DSY_OVERDRIVE_H
   3:../../daisysp//Source/Effects/overdrive.h **** #define DSY_OVERDRIVE_H
   4:../../daisysp//Source/Effects/overdrive.h **** 
   5:../../daisysp//Source/Effects/overdrive.h **** #include <stdint.h>
   6:../../daisysp//Source/Effects/overdrive.h **** #ifdef __cplusplus
   7:../../daisysp//Source/Effects/overdrive.h **** 
   8:../../daisysp//Source/Effects/overdrive.h **** /** @file overdrive.h */
   9:../../daisysp//Source/Effects/overdrive.h **** 
  10:../../daisysp//Source/Effects/overdrive.h **** namespace daisysp
  11:../../daisysp//Source/Effects/overdrive.h **** {
  12:../../daisysp//Source/Effects/overdrive.h **** /**  
  13:../../daisysp//Source/Effects/overdrive.h ****        @brief Distortion / Overdrive Module
  14:../../daisysp//Source/Effects/overdrive.h ****        @author Ported by Ben Sergentanis 
  15:../../daisysp//Source/Effects/overdrive.h ****        @date Jan 2021 
  16:../../daisysp//Source/Effects/overdrive.h ****        Ported from pichenettes/eurorack/plaits/dsp/fx/overdrive.h \n
  17:../../daisysp//Source/Effects/overdrive.h ****        to an independent module. \n
  18:../../daisysp//Source/Effects/overdrive.h ****        Original code written by Emilie Gillet in 2014. \n
  19:../../daisysp//Source/Effects/overdrive.h **** */
ARM GAS  /var/folders/wr/bk9txnv930v5t7d_4s42nmkm0000gq/T//ccJtZ1lc.s 			page 25


  20:../../daisysp//Source/Effects/overdrive.h **** class Overdrive
  21:../../daisysp//Source/Effects/overdrive.h **** {
  22:../../daisysp//Source/Effects/overdrive.h ****   public:
  23:../../daisysp//Source/Effects/overdrive.h ****     Overdrive() {}
  24:../../daisysp//Source/Effects/overdrive.h ****     ~Overdrive() {}
 278              		.loc 13 24 5 is_stmt 1 view -0
 279              		.cfi_startproc
 280              		@ args = 0, pretend = 0, frame = 0
 281              		@ frame_needed = 0, uses_anonymous_args = 0
 282              		@ link register save eliminated.
 283              		.loc 13 24 19 is_stmt 0 view .LVU34
 284 0000 7047     		bx	lr
 285              		.cfi_endproc
 286              	.LFE3938:
 288              		.weak	_ZN7daisysp9OverdriveD1Ev
 289              		.thumb_set _ZN7daisysp9OverdriveD1Ev,_ZN7daisysp9OverdriveD2Ev
 290 0002 00BF     		.section	.text._ZN7daisysp8ReverbScD2Ev,"axG",%progbits,_ZN7daisysp8ReverbScD5Ev,comdat
 291              		.align	1
 292              		.p2align 2,,3
 293              		.weak	_ZN7daisysp8ReverbScD2Ev
 294              		.syntax unified
 295              		.thumb
 296              		.thumb_func
 297              		.fpu fpv5-d16
 299              	_ZN7daisysp8ReverbScD2Ev:
 300              	.LVL9:
 301              	.LFB3944:
 302              		.file 14 "../../daisysp//Source/Effects/reverbsc.h"
   1:../../daisysp//Source/Effects/reverbsc.h **** #pragma once
   2:../../daisysp//Source/Effects/reverbsc.h **** #ifndef DSYSP_REVERBSC_H
   3:../../daisysp//Source/Effects/reverbsc.h **** #define DSYSP_REVERBSC_H
   4:../../daisysp//Source/Effects/reverbsc.h **** 
   5:../../daisysp//Source/Effects/reverbsc.h **** #define DSY_REVERBSC_MAX_SIZE 98936
   6:../../daisysp//Source/Effects/reverbsc.h **** 
   7:../../daisysp//Source/Effects/reverbsc.h **** namespace daisysp
   8:../../daisysp//Source/Effects/reverbsc.h **** {
   9:../../daisysp//Source/Effects/reverbsc.h **** /**Delay line for internal reverb use
  10:../../daisysp//Source/Effects/reverbsc.h **** */
  11:../../daisysp//Source/Effects/reverbsc.h **** typedef struct
  12:../../daisysp//Source/Effects/reverbsc.h **** {
  13:../../daisysp//Source/Effects/reverbsc.h ****     int    write_pos;         /**< write position */
  14:../../daisysp//Source/Effects/reverbsc.h ****     int    buffer_size;       /**< buffer size */
  15:../../daisysp//Source/Effects/reverbsc.h ****     int    read_pos;          /**< read position */
  16:../../daisysp//Source/Effects/reverbsc.h ****     int    read_pos_frac;     /**< fractional component of read pos */
  17:../../daisysp//Source/Effects/reverbsc.h ****     int    read_pos_frac_inc; /**< increment for fractional */
  18:../../daisysp//Source/Effects/reverbsc.h ****     int    dummy;             /**<  dummy var */
  19:../../daisysp//Source/Effects/reverbsc.h ****     int    seed_val;          /**< randseed */
  20:../../daisysp//Source/Effects/reverbsc.h ****     int    rand_line_cnt;     /**< number of random lines */
  21:../../daisysp//Source/Effects/reverbsc.h ****     float  filter_state;      /**< state of filter */
  22:../../daisysp//Source/Effects/reverbsc.h ****     float *buf;               /**< buffer ptr */
  23:../../daisysp//Source/Effects/reverbsc.h **** } ReverbScDl;
  24:../../daisysp//Source/Effects/reverbsc.h **** 
  25:../../daisysp//Source/Effects/reverbsc.h **** /** Stereo Reverb
  26:../../daisysp//Source/Effects/reverbsc.h **** 
  27:../../daisysp//Source/Effects/reverbsc.h **** Reverb SC:               Ported from csound/soundpipe
  28:../../daisysp//Source/Effects/reverbsc.h **** 
  29:../../daisysp//Source/Effects/reverbsc.h **** Original author(s):        Sean Costello, Istvan Varga
ARM GAS  /var/folders/wr/bk9txnv930v5t7d_4s42nmkm0000gq/T//ccJtZ1lc.s 			page 26


  30:../../daisysp//Source/Effects/reverbsc.h **** 
  31:../../daisysp//Source/Effects/reverbsc.h **** Year:                    1999, 2005
  32:../../daisysp//Source/Effects/reverbsc.h **** 
  33:../../daisysp//Source/Effects/reverbsc.h **** Ported to soundpipe by:  Paul Batchelor
  34:../../daisysp//Source/Effects/reverbsc.h **** 
  35:../../daisysp//Source/Effects/reverbsc.h **** Ported by:                Stephen Hensley
  36:../../daisysp//Source/Effects/reverbsc.h **** */
  37:../../daisysp//Source/Effects/reverbsc.h **** class ReverbSc
  38:../../daisysp//Source/Effects/reverbsc.h **** {
  39:../../daisysp//Source/Effects/reverbsc.h ****   public:
  40:../../daisysp//Source/Effects/reverbsc.h ****     ReverbSc() {}
  41:../../daisysp//Source/Effects/reverbsc.h ****     ~ReverbSc() {}
 303              		.loc 14 41 5 is_stmt 1 view -0
 304              		.cfi_startproc
 305              		@ args = 0, pretend = 0, frame = 0
 306              		@ frame_needed = 0, uses_anonymous_args = 0
 307              		@ link register save eliminated.
 308              		.loc 14 41 18 is_stmt 0 view .LVU36
 309 0000 7047     		bx	lr
 310              		.cfi_endproc
 311              	.LFE3944:
 313              		.weak	_ZN7daisysp8ReverbScD1Ev
 314              		.thumb_set _ZN7daisysp8ReverbScD1Ev,_ZN7daisysp8ReverbScD2Ev
 315 0002 00BF     		.section	.text._ZN7daisysp10MoogLadderD2Ev,"axG",%progbits,_ZN7daisysp10MoogLadderD5Ev,comdat
 316              		.align	1
 317              		.p2align 2,,3
 318              		.weak	_ZN7daisysp10MoogLadderD2Ev
 319              		.syntax unified
 320              		.thumb
 321              		.thumb_func
 322              		.fpu fpv5-d16
 324              	_ZN7daisysp10MoogLadderD2Ev:
 325              	.LVL10:
 326              	.LFB4029:
 327              		.file 15 "../../daisysp//Source/Filters/moogladder.h"
   1:../../daisysp//Source/Filters/moogladder.h **** #pragma once
   2:../../daisysp//Source/Filters/moogladder.h **** #ifndef DSY_MOOGLADDER_H
   3:../../daisysp//Source/Filters/moogladder.h **** #define DSY_MOOGLADDER_H
   4:../../daisysp//Source/Filters/moogladder.h **** 
   5:../../daisysp//Source/Filters/moogladder.h **** #include <stdint.h>
   6:../../daisysp//Source/Filters/moogladder.h **** #ifdef __cplusplus
   7:../../daisysp//Source/Filters/moogladder.h **** 
   8:../../daisysp//Source/Filters/moogladder.h **** namespace daisysp
   9:../../daisysp//Source/Filters/moogladder.h **** {
  10:../../daisysp//Source/Filters/moogladder.h **** /** Moog ladder filter module
  11:../../daisysp//Source/Filters/moogladder.h **** 
  12:../../daisysp//Source/Filters/moogladder.h **** Ported from soundpipe
  13:../../daisysp//Source/Filters/moogladder.h **** 
  14:../../daisysp//Source/Filters/moogladder.h **** Original author(s) : Victor Lazzarini, John ffitch (fast tanh), Bob Moog
  15:../../daisysp//Source/Filters/moogladder.h **** 
  16:../../daisysp//Source/Filters/moogladder.h **** */
  17:../../daisysp//Source/Filters/moogladder.h **** class MoogLadder
  18:../../daisysp//Source/Filters/moogladder.h **** {
  19:../../daisysp//Source/Filters/moogladder.h ****   public:
  20:../../daisysp//Source/Filters/moogladder.h ****     MoogLadder() {}
  21:../../daisysp//Source/Filters/moogladder.h ****     ~MoogLadder() {}
 328              		.loc 15 21 5 is_stmt 1 view -0
ARM GAS  /var/folders/wr/bk9txnv930v5t7d_4s42nmkm0000gq/T//ccJtZ1lc.s 			page 27


 329              		.cfi_startproc
 330              		@ args = 0, pretend = 0, frame = 0
 331              		@ frame_needed = 0, uses_anonymous_args = 0
 332              		@ link register save eliminated.
 333              		.loc 15 21 20 is_stmt 0 view .LVU38
 334 0000 7047     		bx	lr
 335              		.cfi_endproc
 336              	.LFE4029:
 338              		.weak	_ZN7daisysp10MoogLadderD1Ev
 339              		.thumb_set _ZN7daisysp10MoogLadderD1Ev,_ZN7daisysp10MoogLadderD2Ev
 340 0002 00BF     		.section	.text._ZN5daisy11OledDisplayINS_13SSD130xDriverILj128ELj64ENS_24SSD130x4WireSpiTransportE
 341              		.align	1
 342              		.p2align 2,,3
 343              		.weak	_ZN5daisy11OledDisplayINS_13SSD130xDriverILj128ELj64ENS_24SSD130x4WireSpiTransportEEEE4FillE
 344              		.syntax unified
 345              		.thumb
 346              		.thumb_func
 347              		.fpu fpv5-d16
 349              	_ZN5daisy11OledDisplayINS_13SSD130xDriverILj128ELj64ENS_24SSD130x4WireSpiTransportEEEE4FillEb:
 350              	.LVL11:
 351              	.LFB4709:
 352              		.file 16 "../../libdaisy//src/hid/disp/oled_display.h"
   1:../../libdaisy//src/hid/disp/oled_display.h **** #pragma once
   2:../../libdaisy//src/hid/disp/oled_display.h **** #ifndef DSY_OLED_DISPLAY_H
   3:../../libdaisy//src/hid/disp/oled_display.h **** #define DSY_OLED_DISPLAY_H /**< Macro */
   4:../../libdaisy//src/hid/disp/oled_display.h **** 
   5:../../libdaisy//src/hid/disp/oled_display.h **** #include "display.h"
   6:../../libdaisy//src/hid/disp/oled_display.h **** 
   7:../../libdaisy//src/hid/disp/oled_display.h **** namespace daisy
   8:../../libdaisy//src/hid/disp/oled_display.h **** {
   9:../../libdaisy//src/hid/disp/oled_display.h **** /** 
  10:../../libdaisy//src/hid/disp/oled_display.h ****  * This class is for drawing to a monochrome OLED display. 
  11:../../libdaisy//src/hid/disp/oled_display.h **** */
  12:../../libdaisy//src/hid/disp/oled_display.h **** template <typename DisplayDriver>
  13:../../libdaisy//src/hid/disp/oled_display.h **** class OledDisplay : public OneBitGraphicsDisplayImpl<OledDisplay<DisplayDriver>>
  14:../../libdaisy//src/hid/disp/oled_display.h **** {
  15:../../libdaisy//src/hid/disp/oled_display.h ****   public:
  16:../../libdaisy//src/hid/disp/oled_display.h ****     OledDisplay() {}
  17:../../libdaisy//src/hid/disp/oled_display.h ****     virtual ~OledDisplay() {}
  18:../../libdaisy//src/hid/disp/oled_display.h **** 
  19:../../libdaisy//src/hid/disp/oled_display.h ****     struct Config
  20:../../libdaisy//src/hid/disp/oled_display.h ****     {
  21:../../libdaisy//src/hid/disp/oled_display.h ****         typename DisplayDriver::Config driver_config;
  22:../../libdaisy//src/hid/disp/oled_display.h ****     };
  23:../../libdaisy//src/hid/disp/oled_display.h **** 
  24:../../libdaisy//src/hid/disp/oled_display.h ****     void Init(Config config) { driver_.Init(config.driver_config); }
  25:../../libdaisy//src/hid/disp/oled_display.h **** 
  26:../../libdaisy//src/hid/disp/oled_display.h ****     uint16_t Height() const override { return driver_.Height(); }
  27:../../libdaisy//src/hid/disp/oled_display.h ****     uint16_t Width() const override { return driver_.Width(); }
  28:../../libdaisy//src/hid/disp/oled_display.h **** 
  29:../../libdaisy//src/hid/disp/oled_display.h ****     /** 
  30:../../libdaisy//src/hid/disp/oled_display.h ****     Fills the entire display with either on/off.
  31:../../libdaisy//src/hid/disp/oled_display.h ****     \param on Sets on or off.
  32:../../libdaisy//src/hid/disp/oled_display.h ****     */
  33:../../libdaisy//src/hid/disp/oled_display.h ****     void Fill(bool on) override { driver_.Fill(on); }
 353              		.loc 16 33 10 is_stmt 1 view -0
 354              		.cfi_startproc
ARM GAS  /var/folders/wr/bk9txnv930v5t7d_4s42nmkm0000gq/T//ccJtZ1lc.s 			page 28


 355              		@ args = 0, pretend = 0, frame = 0
 356              		@ frame_needed = 0, uses_anonymous_args = 0
 357              		@ link register save eliminated.
 358              	.LBB1766:
 359              	.LBI1766:
 360              		.file 17 "../../libdaisy//src/dev/oled_ssd130x.h"
   1:../../libdaisy//src/dev/oled_ssd130x.h **** #pragma once
   2:../../libdaisy//src/dev/oled_ssd130x.h **** #ifndef SA_OLED_SSD130X_H
   3:../../libdaisy//src/dev/oled_ssd130x.h **** #define SA_OLED_SSD130X_H /**< & */
   4:../../libdaisy//src/dev/oled_ssd130x.h **** 
   5:../../libdaisy//src/dev/oled_ssd130x.h **** #include "per/i2c.h"
   6:../../libdaisy//src/dev/oled_ssd130x.h **** #include "per/spi.h"
   7:../../libdaisy//src/dev/oled_ssd130x.h **** #include "per/gpio.h"
   8:../../libdaisy//src/dev/oled_ssd130x.h **** #include "sys/system.h"
   9:../../libdaisy//src/dev/oled_ssd130x.h **** 
  10:../../libdaisy//src/dev/oled_ssd130x.h **** namespace daisy
  11:../../libdaisy//src/dev/oled_ssd130x.h **** {
  12:../../libdaisy//src/dev/oled_ssd130x.h **** /**
  13:../../libdaisy//src/dev/oled_ssd130x.h ****  * I2C Transport for SSD1306 / SSD1309 OLED display devices
  14:../../libdaisy//src/dev/oled_ssd130x.h ****  */
  15:../../libdaisy//src/dev/oled_ssd130x.h **** class SSD130xI2CTransport
  16:../../libdaisy//src/dev/oled_ssd130x.h **** {
  17:../../libdaisy//src/dev/oled_ssd130x.h ****   public:
  18:../../libdaisy//src/dev/oled_ssd130x.h ****     struct Config
  19:../../libdaisy//src/dev/oled_ssd130x.h ****     {
  20:../../libdaisy//src/dev/oled_ssd130x.h ****         I2CHandle::Config i2c_config;
  21:../../libdaisy//src/dev/oled_ssd130x.h ****         uint8_t           i2c_address;
  22:../../libdaisy//src/dev/oled_ssd130x.h ****         void              Defaults()
  23:../../libdaisy//src/dev/oled_ssd130x.h ****         {
  24:../../libdaisy//src/dev/oled_ssd130x.h ****             i2c_config.periph         = I2CHandle::Config::Peripheral::I2C_1;
  25:../../libdaisy//src/dev/oled_ssd130x.h ****             i2c_config.speed          = I2CHandle::Config::Speed::I2C_1MHZ;
  26:../../libdaisy//src/dev/oled_ssd130x.h ****             i2c_config.mode           = I2CHandle::Config::Mode::I2C_MASTER;
  27:../../libdaisy//src/dev/oled_ssd130x.h ****             i2c_config.pin_config.scl = {DSY_GPIOB, 8};
  28:../../libdaisy//src/dev/oled_ssd130x.h ****             i2c_config.pin_config.sda = {DSY_GPIOB, 9};
  29:../../libdaisy//src/dev/oled_ssd130x.h ****             i2c_address               = 0x3C;
  30:../../libdaisy//src/dev/oled_ssd130x.h ****         }
  31:../../libdaisy//src/dev/oled_ssd130x.h ****     };
  32:../../libdaisy//src/dev/oled_ssd130x.h ****     void Init(const Config& config)
  33:../../libdaisy//src/dev/oled_ssd130x.h ****     {
  34:../../libdaisy//src/dev/oled_ssd130x.h ****         i2c_address_ = config.i2c_address;
  35:../../libdaisy//src/dev/oled_ssd130x.h ****         i2c_.Init(config.i2c_config);
  36:../../libdaisy//src/dev/oled_ssd130x.h ****     };
  37:../../libdaisy//src/dev/oled_ssd130x.h ****     void SendCommand(uint8_t cmd)
  38:../../libdaisy//src/dev/oled_ssd130x.h ****     {
  39:../../libdaisy//src/dev/oled_ssd130x.h ****         uint8_t buf[2] = {0X00, cmd};
  40:../../libdaisy//src/dev/oled_ssd130x.h ****         i2c_.TransmitBlocking(i2c_address_, buf, 2, 1000);
  41:../../libdaisy//src/dev/oled_ssd130x.h ****     };
  42:../../libdaisy//src/dev/oled_ssd130x.h **** 
  43:../../libdaisy//src/dev/oled_ssd130x.h ****     void SendData(uint8_t* buff, size_t size)
  44:../../libdaisy//src/dev/oled_ssd130x.h ****     {
  45:../../libdaisy//src/dev/oled_ssd130x.h ****         for(size_t i = 0; i < size; i++)
  46:../../libdaisy//src/dev/oled_ssd130x.h ****         {
  47:../../libdaisy//src/dev/oled_ssd130x.h ****             uint8_t buf[2] = {0X40, buff[i]};
  48:../../libdaisy//src/dev/oled_ssd130x.h ****             i2c_.TransmitBlocking(i2c_address_, buf, 2, 1000);
  49:../../libdaisy//src/dev/oled_ssd130x.h ****         }
  50:../../libdaisy//src/dev/oled_ssd130x.h ****     };
  51:../../libdaisy//src/dev/oled_ssd130x.h **** 
ARM GAS  /var/folders/wr/bk9txnv930v5t7d_4s42nmkm0000gq/T//ccJtZ1lc.s 			page 29


  52:../../libdaisy//src/dev/oled_ssd130x.h ****   private:
  53:../../libdaisy//src/dev/oled_ssd130x.h ****     daisy::I2CHandle i2c_;
  54:../../libdaisy//src/dev/oled_ssd130x.h ****     uint8_t          i2c_address_;
  55:../../libdaisy//src/dev/oled_ssd130x.h **** };
  56:../../libdaisy//src/dev/oled_ssd130x.h **** 
  57:../../libdaisy//src/dev/oled_ssd130x.h **** /**
  58:../../libdaisy//src/dev/oled_ssd130x.h ****  * 4 Wire SPI Transport for SSD1306 / SSD1309 OLED display devices
  59:../../libdaisy//src/dev/oled_ssd130x.h ****  */
  60:../../libdaisy//src/dev/oled_ssd130x.h **** class SSD130x4WireSpiTransport
  61:../../libdaisy//src/dev/oled_ssd130x.h **** {
  62:../../libdaisy//src/dev/oled_ssd130x.h ****   public:
  63:../../libdaisy//src/dev/oled_ssd130x.h ****     struct Config
  64:../../libdaisy//src/dev/oled_ssd130x.h ****     {
  65:../../libdaisy//src/dev/oled_ssd130x.h ****         struct
  66:../../libdaisy//src/dev/oled_ssd130x.h ****         {
  67:../../libdaisy//src/dev/oled_ssd130x.h ****             dsy_gpio_pin dc;    /**< & */
  68:../../libdaisy//src/dev/oled_ssd130x.h ****             dsy_gpio_pin reset; /**< & */
  69:../../libdaisy//src/dev/oled_ssd130x.h ****         } pin_config;
  70:../../libdaisy//src/dev/oled_ssd130x.h ****         void Defaults()
  71:../../libdaisy//src/dev/oled_ssd130x.h ****         {
  72:../../libdaisy//src/dev/oled_ssd130x.h ****             pin_config.dc    = {DSY_GPIOB, 4};
  73:../../libdaisy//src/dev/oled_ssd130x.h ****             pin_config.reset = {DSY_GPIOB, 15};
  74:../../libdaisy//src/dev/oled_ssd130x.h ****         }
  75:../../libdaisy//src/dev/oled_ssd130x.h ****     };
  76:../../libdaisy//src/dev/oled_ssd130x.h ****     void Init(const Config& config)
  77:../../libdaisy//src/dev/oled_ssd130x.h ****     {
  78:../../libdaisy//src/dev/oled_ssd130x.h ****         // Initialize both GPIO
  79:../../libdaisy//src/dev/oled_ssd130x.h ****         pin_dc_.mode = DSY_GPIO_MODE_OUTPUT_PP;
  80:../../libdaisy//src/dev/oled_ssd130x.h ****         pin_dc_.pin  = config.pin_config.dc;
  81:../../libdaisy//src/dev/oled_ssd130x.h ****         dsy_gpio_init(&pin_dc_);
  82:../../libdaisy//src/dev/oled_ssd130x.h ****         pin_reset_.mode = DSY_GPIO_MODE_OUTPUT_PP;
  83:../../libdaisy//src/dev/oled_ssd130x.h ****         pin_reset_.pin  = config.pin_config.reset;
  84:../../libdaisy//src/dev/oled_ssd130x.h ****         dsy_gpio_init(&pin_reset_);
  85:../../libdaisy//src/dev/oled_ssd130x.h ****         // Initialize SPI
  86:../../libdaisy//src/dev/oled_ssd130x.h ****         SpiHandle::Config spi_config;
  87:../../libdaisy//src/dev/oled_ssd130x.h ****         spi_config.periph    = SpiHandle::Config::Peripheral::SPI_1;
  88:../../libdaisy//src/dev/oled_ssd130x.h ****         spi_config.mode      = SpiHandle::Config::Mode::MASTER;
  89:../../libdaisy//src/dev/oled_ssd130x.h ****         spi_config.direction = SpiHandle::Config::Direction::TWO_LINES_TX_ONLY;
  90:../../libdaisy//src/dev/oled_ssd130x.h ****         spi_config.datasize  = 8;
  91:../../libdaisy//src/dev/oled_ssd130x.h ****         spi_config.clock_polarity = SpiHandle::Config::ClockPolarity::LOW;
  92:../../libdaisy//src/dev/oled_ssd130x.h ****         spi_config.clock_phase    = SpiHandle::Config::ClockPhase::ONE_EDGE;
  93:../../libdaisy//src/dev/oled_ssd130x.h ****         spi_config.nss            = SpiHandle::Config::NSS::HARD_OUTPUT;
  94:../../libdaisy//src/dev/oled_ssd130x.h ****         spi_config.baud_prescaler = SpiHandle::Config::BaudPrescaler::PS_8;
  95:../../libdaisy//src/dev/oled_ssd130x.h **** 
  96:../../libdaisy//src/dev/oled_ssd130x.h ****         spi_config.pin_config.sclk = {DSY_GPIOG, 11};
  97:../../libdaisy//src/dev/oled_ssd130x.h ****         spi_config.pin_config.miso = {DSY_GPIOX, 0};
  98:../../libdaisy//src/dev/oled_ssd130x.h ****         spi_config.pin_config.mosi = {DSY_GPIOB, 5};
  99:../../libdaisy//src/dev/oled_ssd130x.h ****         spi_config.pin_config.nss  = {DSY_GPIOG, 10};
 100:../../libdaisy//src/dev/oled_ssd130x.h **** 
 101:../../libdaisy//src/dev/oled_ssd130x.h ****         spi_.Init(spi_config);
 102:../../libdaisy//src/dev/oled_ssd130x.h **** 
 103:../../libdaisy//src/dev/oled_ssd130x.h ****         // Reset and Configure OLED.
 104:../../libdaisy//src/dev/oled_ssd130x.h ****         dsy_gpio_write(&pin_reset_, 0);
 105:../../libdaisy//src/dev/oled_ssd130x.h ****         System::Delay(10);
 106:../../libdaisy//src/dev/oled_ssd130x.h ****         dsy_gpio_write(&pin_reset_, 1);
 107:../../libdaisy//src/dev/oled_ssd130x.h ****         System::Delay(10);
 108:../../libdaisy//src/dev/oled_ssd130x.h ****     };
ARM GAS  /var/folders/wr/bk9txnv930v5t7d_4s42nmkm0000gq/T//ccJtZ1lc.s 			page 30


 109:../../libdaisy//src/dev/oled_ssd130x.h ****     void SendCommand(uint8_t cmd)
 110:../../libdaisy//src/dev/oled_ssd130x.h ****     {
 111:../../libdaisy//src/dev/oled_ssd130x.h ****         dsy_gpio_write(&pin_dc_, 0);
 112:../../libdaisy//src/dev/oled_ssd130x.h ****         spi_.BlockingTransmit(&cmd, 1);
 113:../../libdaisy//src/dev/oled_ssd130x.h ****     };
 114:../../libdaisy//src/dev/oled_ssd130x.h **** 
 115:../../libdaisy//src/dev/oled_ssd130x.h ****     void SendData(uint8_t* buff, size_t size)
 116:../../libdaisy//src/dev/oled_ssd130x.h ****     {
 117:../../libdaisy//src/dev/oled_ssd130x.h ****         dsy_gpio_write(&pin_dc_, 1);
 118:../../libdaisy//src/dev/oled_ssd130x.h ****         spi_.BlockingTransmit(buff, size);
 119:../../libdaisy//src/dev/oled_ssd130x.h ****     };
 120:../../libdaisy//src/dev/oled_ssd130x.h **** 
 121:../../libdaisy//src/dev/oled_ssd130x.h ****   private:
 122:../../libdaisy//src/dev/oled_ssd130x.h ****     SpiHandle spi_;
 123:../../libdaisy//src/dev/oled_ssd130x.h ****     dsy_gpio  pin_reset_;
 124:../../libdaisy//src/dev/oled_ssd130x.h ****     dsy_gpio  pin_dc_;
 125:../../libdaisy//src/dev/oled_ssd130x.h **** };
 126:../../libdaisy//src/dev/oled_ssd130x.h **** 
 127:../../libdaisy//src/dev/oled_ssd130x.h **** 
 128:../../libdaisy//src/dev/oled_ssd130x.h **** /**
 129:../../libdaisy//src/dev/oled_ssd130x.h ****  * A driver implementation for the SSD1306/SSD1309
 130:../../libdaisy//src/dev/oled_ssd130x.h ****  */
 131:../../libdaisy//src/dev/oled_ssd130x.h **** template <size_t width, size_t height, typename Transport>
 132:../../libdaisy//src/dev/oled_ssd130x.h **** class SSD130xDriver
 133:../../libdaisy//src/dev/oled_ssd130x.h **** {
 134:../../libdaisy//src/dev/oled_ssd130x.h ****   public:
 135:../../libdaisy//src/dev/oled_ssd130x.h ****     struct Config
 136:../../libdaisy//src/dev/oled_ssd130x.h ****     {
 137:../../libdaisy//src/dev/oled_ssd130x.h ****         typename Transport::Config transport_config;
 138:../../libdaisy//src/dev/oled_ssd130x.h ****     };
 139:../../libdaisy//src/dev/oled_ssd130x.h **** 
 140:../../libdaisy//src/dev/oled_ssd130x.h ****     void Init(Config config)
 141:../../libdaisy//src/dev/oled_ssd130x.h ****     {
 142:../../libdaisy//src/dev/oled_ssd130x.h ****         transport_.Init(config.transport_config);
 143:../../libdaisy//src/dev/oled_ssd130x.h **** 
 144:../../libdaisy//src/dev/oled_ssd130x.h ****         // Init routine...
 145:../../libdaisy//src/dev/oled_ssd130x.h **** 
 146:../../libdaisy//src/dev/oled_ssd130x.h ****         // Display Off
 147:../../libdaisy//src/dev/oled_ssd130x.h ****         transport_.SendCommand(0xaE);
 148:../../libdaisy//src/dev/oled_ssd130x.h ****         // Dimension dependent commands...
 149:../../libdaisy//src/dev/oled_ssd130x.h ****         switch(height)
 150:../../libdaisy//src/dev/oled_ssd130x.h ****         {
 151:../../libdaisy//src/dev/oled_ssd130x.h ****             case 16:
 152:../../libdaisy//src/dev/oled_ssd130x.h ****                 // Display Clock Divide Ratio
 153:../../libdaisy//src/dev/oled_ssd130x.h ****                 transport_.SendCommand(0xD5);
 154:../../libdaisy//src/dev/oled_ssd130x.h ****                 transport_.SendCommand(0x60);
 155:../../libdaisy//src/dev/oled_ssd130x.h ****                 // Multiplex Ratio
 156:../../libdaisy//src/dev/oled_ssd130x.h ****                 transport_.SendCommand(0xA8);
 157:../../libdaisy//src/dev/oled_ssd130x.h ****                 transport_.SendCommand(0x0F);
 158:../../libdaisy//src/dev/oled_ssd130x.h ****                 // COM Pins
 159:../../libdaisy//src/dev/oled_ssd130x.h ****                 transport_.SendCommand(0xDA);
 160:../../libdaisy//src/dev/oled_ssd130x.h ****                 transport_.SendCommand(0x02);
 161:../../libdaisy//src/dev/oled_ssd130x.h ****                 break;
 162:../../libdaisy//src/dev/oled_ssd130x.h ****             case 32:
 163:../../libdaisy//src/dev/oled_ssd130x.h ****                 // Display Clock Divide Ratio
 164:../../libdaisy//src/dev/oled_ssd130x.h ****                 transport_.SendCommand(0xD5);
 165:../../libdaisy//src/dev/oled_ssd130x.h ****                 transport_.SendCommand(0x80);
ARM GAS  /var/folders/wr/bk9txnv930v5t7d_4s42nmkm0000gq/T//ccJtZ1lc.s 			page 31


 166:../../libdaisy//src/dev/oled_ssd130x.h ****                 // Multiplex Ratio
 167:../../libdaisy//src/dev/oled_ssd130x.h ****                 transport_.SendCommand(0xA8);
 168:../../libdaisy//src/dev/oled_ssd130x.h ****                 transport_.SendCommand(0x1F);
 169:../../libdaisy//src/dev/oled_ssd130x.h ****                 // COM Pins
 170:../../libdaisy//src/dev/oled_ssd130x.h ****                 transport_.SendCommand(0xDA);
 171:../../libdaisy//src/dev/oled_ssd130x.h ****                 if(width == 64)
 172:../../libdaisy//src/dev/oled_ssd130x.h ****                 {
 173:../../libdaisy//src/dev/oled_ssd130x.h ****                     transport_.SendCommand(0x12);
 174:../../libdaisy//src/dev/oled_ssd130x.h ****                 }
 175:../../libdaisy//src/dev/oled_ssd130x.h ****                 else
 176:../../libdaisy//src/dev/oled_ssd130x.h ****                 {
 177:../../libdaisy//src/dev/oled_ssd130x.h ****                     transport_.SendCommand(0x02);
 178:../../libdaisy//src/dev/oled_ssd130x.h ****                 }
 179:../../libdaisy//src/dev/oled_ssd130x.h **** 
 180:../../libdaisy//src/dev/oled_ssd130x.h ****                 break;
 181:../../libdaisy//src/dev/oled_ssd130x.h ****             case 48:
 182:../../libdaisy//src/dev/oled_ssd130x.h ****                 // Display Clock Divide Ratio
 183:../../libdaisy//src/dev/oled_ssd130x.h ****                 transport_.SendCommand(0xD5);
 184:../../libdaisy//src/dev/oled_ssd130x.h ****                 transport_.SendCommand(0x80);
 185:../../libdaisy//src/dev/oled_ssd130x.h ****                 // Multiplex Ratio
 186:../../libdaisy//src/dev/oled_ssd130x.h ****                 transport_.SendCommand(0xA8);
 187:../../libdaisy//src/dev/oled_ssd130x.h ****                 transport_.SendCommand(0x2F);
 188:../../libdaisy//src/dev/oled_ssd130x.h ****                 // COM Pins
 189:../../libdaisy//src/dev/oled_ssd130x.h ****                 transport_.SendCommand(0xDA);
 190:../../libdaisy//src/dev/oled_ssd130x.h ****                 transport_.SendCommand(0x12);
 191:../../libdaisy//src/dev/oled_ssd130x.h ****                 break;
 192:../../libdaisy//src/dev/oled_ssd130x.h ****             default: // 128
 193:../../libdaisy//src/dev/oled_ssd130x.h ****                 // Display Clock Divide Ratio
 194:../../libdaisy//src/dev/oled_ssd130x.h ****                 transport_.SendCommand(0xD5);
 195:../../libdaisy//src/dev/oled_ssd130x.h ****                 transport_.SendCommand(0x80);
 196:../../libdaisy//src/dev/oled_ssd130x.h ****                 // Multiplex Ratio
 197:../../libdaisy//src/dev/oled_ssd130x.h ****                 transport_.SendCommand(0xA8);
 198:../../libdaisy//src/dev/oled_ssd130x.h ****                 transport_.SendCommand(0x3F);
 199:../../libdaisy//src/dev/oled_ssd130x.h ****                 // COM Pins
 200:../../libdaisy//src/dev/oled_ssd130x.h ****                 transport_.SendCommand(0xDA);
 201:../../libdaisy//src/dev/oled_ssd130x.h ****                 transport_.SendCommand(0x12);
 202:../../libdaisy//src/dev/oled_ssd130x.h ****                 break;
 203:../../libdaisy//src/dev/oled_ssd130x.h ****         }
 204:../../libdaisy//src/dev/oled_ssd130x.h **** 
 205:../../libdaisy//src/dev/oled_ssd130x.h ****         // Display Offset
 206:../../libdaisy//src/dev/oled_ssd130x.h ****         transport_.SendCommand(0xD3);
 207:../../libdaisy//src/dev/oled_ssd130x.h ****         transport_.SendCommand(0x00);
 208:../../libdaisy//src/dev/oled_ssd130x.h ****         // Start Line Address
 209:../../libdaisy//src/dev/oled_ssd130x.h ****         transport_.SendCommand(0x40);
 210:../../libdaisy//src/dev/oled_ssd130x.h ****         // Normal Display
 211:../../libdaisy//src/dev/oled_ssd130x.h ****         transport_.SendCommand(0xA6);
 212:../../libdaisy//src/dev/oled_ssd130x.h ****         // All On Resume
 213:../../libdaisy//src/dev/oled_ssd130x.h ****         transport_.SendCommand(0xA4);
 214:../../libdaisy//src/dev/oled_ssd130x.h ****         // Charge Pump
 215:../../libdaisy//src/dev/oled_ssd130x.h ****         transport_.SendCommand(0x8D);
 216:../../libdaisy//src/dev/oled_ssd130x.h ****         transport_.SendCommand(0x14);
 217:../../libdaisy//src/dev/oled_ssd130x.h ****         // Set Segment Remap
 218:../../libdaisy//src/dev/oled_ssd130x.h ****         transport_.SendCommand(0xA1);
 219:../../libdaisy//src/dev/oled_ssd130x.h ****         // COM Output Scan Direction
 220:../../libdaisy//src/dev/oled_ssd130x.h ****         transport_.SendCommand(0xC8);
 221:../../libdaisy//src/dev/oled_ssd130x.h ****         // Contrast Control
 222:../../libdaisy//src/dev/oled_ssd130x.h ****         transport_.SendCommand(0x81);
ARM GAS  /var/folders/wr/bk9txnv930v5t7d_4s42nmkm0000gq/T//ccJtZ1lc.s 			page 32


 223:../../libdaisy//src/dev/oled_ssd130x.h ****         transport_.SendCommand(0x8F);
 224:../../libdaisy//src/dev/oled_ssd130x.h ****         // Pre Charge
 225:../../libdaisy//src/dev/oled_ssd130x.h ****         transport_.SendCommand(0xD9);
 226:../../libdaisy//src/dev/oled_ssd130x.h ****         transport_.SendCommand(0x25);
 227:../../libdaisy//src/dev/oled_ssd130x.h ****         // VCOM Detect
 228:../../libdaisy//src/dev/oled_ssd130x.h ****         transport_.SendCommand(0xDB);
 229:../../libdaisy//src/dev/oled_ssd130x.h ****         transport_.SendCommand(0x34);
 230:../../libdaisy//src/dev/oled_ssd130x.h **** 
 231:../../libdaisy//src/dev/oled_ssd130x.h **** 
 232:../../libdaisy//src/dev/oled_ssd130x.h ****         // Display On
 233:../../libdaisy//src/dev/oled_ssd130x.h ****         transport_.SendCommand(0xAF); //--turn on oled panel
 234:../../libdaisy//src/dev/oled_ssd130x.h ****     };
 235:../../libdaisy//src/dev/oled_ssd130x.h **** 
 236:../../libdaisy//src/dev/oled_ssd130x.h ****     size_t Width() const { return width; };
 237:../../libdaisy//src/dev/oled_ssd130x.h ****     size_t Height() const { return height; };
 238:../../libdaisy//src/dev/oled_ssd130x.h **** 
 239:../../libdaisy//src/dev/oled_ssd130x.h ****     void DrawPixel(uint_fast8_t x, uint_fast8_t y, bool on)
 240:../../libdaisy//src/dev/oled_ssd130x.h ****     {
 241:../../libdaisy//src/dev/oled_ssd130x.h ****         if(x >= width || y >= height)
 242:../../libdaisy//src/dev/oled_ssd130x.h ****             return;
 243:../../libdaisy//src/dev/oled_ssd130x.h ****         if(on)
 244:../../libdaisy//src/dev/oled_ssd130x.h ****             buffer_[x + (y / 8) * width] |= (1 << (y % 8));
 245:../../libdaisy//src/dev/oled_ssd130x.h ****         else
 246:../../libdaisy//src/dev/oled_ssd130x.h ****             buffer_[x + (y / 8) * width] &= ~(1 << (y % 8));
 247:../../libdaisy//src/dev/oled_ssd130x.h ****     }
 248:../../libdaisy//src/dev/oled_ssd130x.h **** 
 249:../../libdaisy//src/dev/oled_ssd130x.h ****     void Fill(bool on)
 361              		.loc 17 249 10 view .LVU40
 362              	.LBB1767:
 250:../../libdaisy//src/dev/oled_ssd130x.h ****     {
 251:../../libdaisy//src/dev/oled_ssd130x.h ****         for(size_t i = 0; i < sizeof(buffer_); i++)
 363              		.loc 17 251 29 view .LVU41
 252:../../libdaisy//src/dev/oled_ssd130x.h ****         {
 253:../../libdaisy//src/dev/oled_ssd130x.h ****             buffer_[i] = on ? 0xff : 0x00;
 364              		.loc 17 253 24 is_stmt 0 view .LVU42
 365 0000 4942     		rsbs	r1, r1, #0
 366              	.LVL12:
 367              		.loc 17 253 24 view .LVU43
 368 0002 4FF48062 		mov	r2, #1024
 369 0006 1430     		adds	r0, r0, #20
 370              	.LVL13:
 371              		.loc 17 253 24 view .LVU44
 372 0008 C9B2     		uxtb	r1, r1
 373 000a FFF7FEBF 		b	memset
 374              	.LVL14:
 375              		.loc 17 253 24 view .LVU45
 376              	.LBE1767:
 377              	.LBE1766:
 378              		.cfi_endproc
 379              	.LFE4709:
 381 000e 00BF     		.section	.text._ZN5daisy18FullScreenItemMenuD2Ev,"axG",%progbits,_ZN5daisy18FullScreenItemMenuD5Ev
 382              		.align	1
 383              		.p2align 2,,3
 384              		.weak	_ZN5daisy18FullScreenItemMenuD2Ev
 385              		.syntax unified
 386              		.thumb
 387              		.thumb_func
ARM GAS  /var/folders/wr/bk9txnv930v5t7d_4s42nmkm0000gq/T//ccJtZ1lc.s 			page 33


 388              		.fpu fpv5-d16
 390              	_ZN5daisy18FullScreenItemMenuD2Ev:
 391              	.LVL15:
 392              	.LFB4994:
 393              		.file 18 "../../libdaisy//src/ui/FullScreenItemMenu.h"
   1:../../libdaisy//src/ui/FullScreenItemMenu.h **** #pragma once
   2:../../libdaisy//src/ui/FullScreenItemMenu.h **** 
   3:../../libdaisy//src/ui/FullScreenItemMenu.h **** #include "AbstractMenu.h"
   4:../../libdaisy//src/ui/FullScreenItemMenu.h **** 
   5:../../libdaisy//src/ui/FullScreenItemMenu.h **** namespace daisy
   6:../../libdaisy//src/ui/FullScreenItemMenu.h **** {
   7:../../libdaisy//src/ui/FullScreenItemMenu.h **** /** @brief A menu page for small screens
   8:../../libdaisy//src/ui/FullScreenItemMenu.h ****  *  @author jelliesen
   9:../../libdaisy//src/ui/FullScreenItemMenu.h ****  *  @addtogroup ui
  10:../../libdaisy//src/ui/FullScreenItemMenu.h ****  * 
  11:../../libdaisy//src/ui/FullScreenItemMenu.h ****  *  This class builds upon the menu logic of AbstractMenu and adds 
  12:../../libdaisy//src/ui/FullScreenItemMenu.h ****  *  drawing routines that are suitable for small screens.
  13:../../libdaisy//src/ui/FullScreenItemMenu.h ****  * 
  14:../../libdaisy//src/ui/FullScreenItemMenu.h ****  *  By default, it will paint to the canvas returned by 
  15:../../libdaisy//src/ui/FullScreenItemMenu.h ****  *  `UI::GetPrimaryOneBitGraphicsDisplayId()`. It can also be 
  16:../../libdaisy//src/ui/FullScreenItemMenu.h ****  *  configured to paint to a different canvas.
  17:../../libdaisy//src/ui/FullScreenItemMenu.h ****  * 
  18:../../libdaisy//src/ui/FullScreenItemMenu.h ****  *  Each item will occupy the entire display.
  19:../../libdaisy//src/ui/FullScreenItemMenu.h ****  *  FullScreenItemMenu uses the LookAndFeel system to draw draw the
  20:../../libdaisy//src/ui/FullScreenItemMenu.h ****  *  items. This means that you can create your own graphics design 
  21:../../libdaisy//src/ui/FullScreenItemMenu.h ****  *  by creating your own LookAndFeel based on the OneBitGraphicsLookAndFeel
  22:../../libdaisy//src/ui/FullScreenItemMenu.h ****  *  class and apply that either globally (UI::SetOneBitGraphicsLookAndFeel())
  23:../../libdaisy//src/ui/FullScreenItemMenu.h ****  *  or to this page only (UiPage::SetOneBitGraphicsLookAndFeel()).
  24:../../libdaisy//src/ui/FullScreenItemMenu.h ****  */
  25:../../libdaisy//src/ui/FullScreenItemMenu.h **** class FullScreenItemMenu : public AbstractMenu
 394              		.loc 18 25 7 is_stmt 1 view -0
 395              		.cfi_startproc
 396              		@ args = 0, pretend = 0, frame = 0
 397              		@ frame_needed = 0, uses_anonymous_args = 0
 398              		@ link register save eliminated.
 399              	.LBB1768:
 400              	.LBI1768:
 401              		.file 19 "../../libdaisy//src/ui/AbstractMenu.h"
   1:../../libdaisy//src/ui/AbstractMenu.h **** #pragma once
   2:../../libdaisy//src/ui/AbstractMenu.h **** 
   3:../../libdaisy//src/ui/AbstractMenu.h **** #include "hid/disp/display.h"
   4:../../libdaisy//src/ui/AbstractMenu.h **** #include "util/MappedValue.h"
   5:../../libdaisy//src/ui/AbstractMenu.h **** #include "UI.h"
   6:../../libdaisy//src/ui/AbstractMenu.h **** 
   7:../../libdaisy//src/ui/AbstractMenu.h **** namespace daisy
   8:../../libdaisy//src/ui/AbstractMenu.h **** {
   9:../../libdaisy//src/ui/AbstractMenu.h **** /** @brief Base class for complex menus.
  10:../../libdaisy//src/ui/AbstractMenu.h ****  *  @author jelliesen
  11:../../libdaisy//src/ui/AbstractMenu.h ****  *  @addtogroup ui
  12:../../libdaisy//src/ui/AbstractMenu.h ****  * 
  13:../../libdaisy//src/ui/AbstractMenu.h ****  * This is the base class for any form of UiPage that displays a menu with multiple items.
  14:../../libdaisy//src/ui/AbstractMenu.h ****  * It handles all the logic behind a menu (selecting items, editing items, etc.) but doesn't
  15:../../libdaisy//src/ui/AbstractMenu.h ****  * implement any form of drawing. Implement your own drawing routines by overriding
  16:../../libdaisy//src/ui/AbstractMenu.h ****  * UiPage::Draw() or use `FullScreenItemMenu`
  17:../../libdaisy//src/ui/AbstractMenu.h ****  * 
  18:../../libdaisy//src/ui/AbstractMenu.h ****  * Vaious types of items can be added to the menu, e.g. 
  19:../../libdaisy//src/ui/AbstractMenu.h ****  * - Checkbox items to toggle something on/off,
ARM GAS  /var/folders/wr/bk9txnv930v5t7d_4s42nmkm0000gq/T//ccJtZ1lc.s 			page 34


  20:../../libdaisy//src/ui/AbstractMenu.h ****  * - Generic action items that call a function when activated,
  21:../../libdaisy//src/ui/AbstractMenu.h ****  * - Value editing items for editing int/float/enum values,
  22:../../libdaisy//src/ui/AbstractMenu.h ****  * - Close items that close the menu when activated (useful when no cancel button is available),
  23:../../libdaisy//src/ui/AbstractMenu.h ****  * - Custom items that do whatever you want them to do, by providing a CustomItem object that 
  24:../../libdaisy//src/ui/AbstractMenu.h ****  *   handles the item-specific functionality.
  25:../../libdaisy//src/ui/AbstractMenu.h ****  * 
  26:../../libdaisy//src/ui/AbstractMenu.h ****  * The Abstract Menu can work with a wide variety of physical controls, here are a couple 
  27:../../libdaisy//src/ui/AbstractMenu.h ****  * of combinations that are possible:
  28:../../libdaisy//src/ui/AbstractMenu.h ****  * - 3 buttons: Left/Right to select and edit items, Ok to activate or enter/leave editing mode
  29:../../libdaisy//src/ui/AbstractMenu.h ****  * - 5 buttons: Up/Down to select, Ok to activate/enter/leave, Cancel to close menu, function 
  30:../../libdaisy//src/ui/AbstractMenu.h ****  *              button to use coarse step size when editing
  31:../../libdaisy//src/ui/AbstractMenu.h ****  * - 6 buttons: Left/Right to select, Up/Down to quickly edit selected items, Ok/Cancel to enter/le
  32:../../libdaisy//src/ui/AbstractMenu.h ****  * - 1 encoder with pushbutton
  33:../../libdaisy//src/ui/AbstractMenu.h ****  * - 1 encoder for selecting items, another one for editing their values
  34:../../libdaisy//src/ui/AbstractMenu.h ****  * - 1 encoder for selecting items and a value slider potentiometer for editing
  35:../../libdaisy//src/ui/AbstractMenu.h ****  * - ... any other combination of the above
  36:../../libdaisy//src/ui/AbstractMenu.h ****  * 
  37:../../libdaisy//src/ui/AbstractMenu.h ****  * These are the controls that the AbstractMenu will react to and their associated function:
  38:../../libdaisy//src/ui/AbstractMenu.h ****  * - Left/Right buttons: Select items when `Orientation::leftRightSelectUpDownModify`,
  39:../../libdaisy//src/ui/AbstractMenu.h ****  *                       directly edit value of the selected item when 
  40:../../libdaisy//src/ui/AbstractMenu.h ****  *                       `Orientation::upDownSelectLeftRightModify`.
  41:../../libdaisy//src/ui/AbstractMenu.h ****  * - Up/Down buttons: Select items when `Orientation::upDownSelectLeftRightModify`,
  42:../../libdaisy//src/ui/AbstractMenu.h ****  *                    directly edit value of the selected item when 
  43:../../libdaisy//src/ui/AbstractMenu.h ****  *                    `Orientation::leftRightSelectUpDownModify`.
  44:../../libdaisy//src/ui/AbstractMenu.h ****  * - Ok button: Activate the action of the selected item (if it has an action, e.g. 
  45:../../libdaisy//src/ui/AbstractMenu.h ****  *              `ItemType::closeMenuItem`) otherwise enter/leave editing mode where the 
  46:../../libdaisy//src/ui/AbstractMenu.h ****  *              arrow buttons used for selection will now edit the value instead (only 
  47:../../libdaisy//src/ui/AbstractMenu.h ****  *              possible if `allowEntering` is set to `true`).
  48:../../libdaisy//src/ui/AbstractMenu.h ****  * - Cancel button: Closes the menu page or leaves editing mode
  49:../../libdaisy//src/ui/AbstractMenu.h ****  * - Menu encoder: Selects items; edits item value when in editing mode
  50:../../libdaisy//src/ui/AbstractMenu.h ****  * - Value Encoder: Edits value of selected item
  51:../../libdaisy//src/ui/AbstractMenu.h ****  * - Value potentiometer/slider: Edits value of selected item
  52:../../libdaisy//src/ui/AbstractMenu.h ****  * - Function button: Uses an alternate step size when modifying the value with encoders
  53:../../libdaisy//src/ui/AbstractMenu.h ****  *                    or buttons while pressed
  54:../../libdaisy//src/ui/AbstractMenu.h ****  */
  55:../../libdaisy//src/ui/AbstractMenu.h **** class AbstractMenu : public UiPage
  56:../../libdaisy//src/ui/AbstractMenu.h **** {
  57:../../libdaisy//src/ui/AbstractMenu.h ****   public:
  58:../../libdaisy//src/ui/AbstractMenu.h ****     /** Controls which buttons are used to navigate back and forth between the menu 
  59:../../libdaisy//src/ui/AbstractMenu.h ****      *  items (selection buttons) and which buttons can be used to modify their value 
  60:../../libdaisy//src/ui/AbstractMenu.h ****      *  directly without pressing the enter button first (modify buttons; these don't
  61:../../libdaisy//src/ui/AbstractMenu.h ****      *  have to be available).
  62:../../libdaisy//src/ui/AbstractMenu.h ****      *  @see AbstractMenuPage
  63:../../libdaisy//src/ui/AbstractMenu.h ****      */
  64:../../libdaisy//src/ui/AbstractMenu.h ****     enum class Orientation
  65:../../libdaisy//src/ui/AbstractMenu.h ****     {
  66:../../libdaisy//src/ui/AbstractMenu.h ****         /** left/right buttons => selection buttons, up/down => value buttons */
  67:../../libdaisy//src/ui/AbstractMenu.h ****         leftRightSelectUpDownModify,
  68:../../libdaisy//src/ui/AbstractMenu.h ****         /** up/down buttons => selection buttons, left/right => value buttons */
  69:../../libdaisy//src/ui/AbstractMenu.h ****         upDownSelectLeftRightModify,
  70:../../libdaisy//src/ui/AbstractMenu.h ****     };
  71:../../libdaisy//src/ui/AbstractMenu.h **** 
  72:../../libdaisy//src/ui/AbstractMenu.h ****     /** The types of entries that can be added to the menu. */
  73:../../libdaisy//src/ui/AbstractMenu.h ****     enum class ItemType
  74:../../libdaisy//src/ui/AbstractMenu.h ****     {
  75:../../libdaisy//src/ui/AbstractMenu.h ****         /** Displays a text and calls a callback function when activated with the enter button */
  76:../../libdaisy//src/ui/AbstractMenu.h ****         callbackFunctionItem,
ARM GAS  /var/folders/wr/bk9txnv930v5t7d_4s42nmkm0000gq/T//ccJtZ1lc.s 			page 35


  77:../../libdaisy//src/ui/AbstractMenu.h ****         /** Displays a name and a checkbox. When selected, the modify keys will allow
  78:../../libdaisy//src/ui/AbstractMenu.h ****          *  to change the value directly. Pressing the enter button toggles the value. */
  79:../../libdaisy//src/ui/AbstractMenu.h ****         checkboxItem,
  80:../../libdaisy//src/ui/AbstractMenu.h ****         /** Displays a name and a value (with unit) from a MappedValue. When selected, the modify k
  81:../../libdaisy//src/ui/AbstractMenu.h ****          *  to change the value directly. Pressing the enter button allows to change the value with
  82:../../libdaisy//src/ui/AbstractMenu.h ****          *  the selection buttons as well. */
  83:../../libdaisy//src/ui/AbstractMenu.h ****         valueItem,
  84:../../libdaisy//src/ui/AbstractMenu.h ****         /** Displays a name and opens another UiPage when selected. */
  85:../../libdaisy//src/ui/AbstractMenu.h ****         openUiPageItem,
  86:../../libdaisy//src/ui/AbstractMenu.h ****         /** Displays a text and closes the menu page when selected. This is useful when no cancel 
  87:../../libdaisy//src/ui/AbstractMenu.h ****          *  button is available to close a menu and return to the page below. */
  88:../../libdaisy//src/ui/AbstractMenu.h ****         closeMenuItem,
  89:../../libdaisy//src/ui/AbstractMenu.h ****         /** A custom item. @see CustomItem */
  90:../../libdaisy//src/ui/AbstractMenu.h ****         customItem,
  91:../../libdaisy//src/ui/AbstractMenu.h ****     };
  92:../../libdaisy//src/ui/AbstractMenu.h **** 
  93:../../libdaisy//src/ui/AbstractMenu.h ****     /** Base class for a custom menu item */
  94:../../libdaisy//src/ui/AbstractMenu.h ****     class CustomItem
  95:../../libdaisy//src/ui/AbstractMenu.h ****     {
  96:../../libdaisy//src/ui/AbstractMenu.h ****       public:
  97:../../libdaisy//src/ui/AbstractMenu.h ****         virtual ~CustomItem() {}
  98:../../libdaisy//src/ui/AbstractMenu.h **** 
  99:../../libdaisy//src/ui/AbstractMenu.h ****         /** Draws the item to a OneBitGraphicsDisplay.
 100:../../libdaisy//src/ui/AbstractMenu.h ****          * @param display           The display to draw to
 101:../../libdaisy//src/ui/AbstractMenu.h ****          * @param currentIndex      The index in the menu
 102:../../libdaisy//src/ui/AbstractMenu.h ****          * @param numItemsTotal     The total number of items in the menu
 103:../../libdaisy//src/ui/AbstractMenu.h ****          * @param boundsToDrawIn    The Rectangle to draw the item into
 104:../../libdaisy//src/ui/AbstractMenu.h ****          * @param isEditing         True if the enter button was pressed and the value is being edi
 105:../../libdaisy//src/ui/AbstractMenu.h ****          */
 106:../../libdaisy//src/ui/AbstractMenu.h ****         virtual void Draw(OneBitGraphicsDisplay& display,
 107:../../libdaisy//src/ui/AbstractMenu.h ****                           int                    currentIndex,
 108:../../libdaisy//src/ui/AbstractMenu.h ****                           int                    numItemsTotal,
 109:../../libdaisy//src/ui/AbstractMenu.h ****                           Rectangle              boundsToDrawIn,
 110:../../libdaisy//src/ui/AbstractMenu.h ****                           bool                   isEditing)
 111:../../libdaisy//src/ui/AbstractMenu.h ****             = 0;
 112:../../libdaisy//src/ui/AbstractMenu.h **** 
 113:../../libdaisy//src/ui/AbstractMenu.h ****         /** Returns true, if this item can be entered for direct editing of the value. */
 114:../../libdaisy//src/ui/AbstractMenu.h ****         virtual bool CanBeEnteredForEditing() const { return false; }
 115:../../libdaisy//src/ui/AbstractMenu.h **** 
 116:../../libdaisy//src/ui/AbstractMenu.h ****         /** Called when the encoder of the buttons are used to modify the value. */
 117:../../libdaisy//src/ui/AbstractMenu.h ****         virtual void ModifyValue(int16_t  increments,
 118:../../libdaisy//src/ui/AbstractMenu.h ****                                  uint16_t stepsPerRevolution,
 119:../../libdaisy//src/ui/AbstractMenu.h ****                                  bool     isFunctionButtonPressed)
 120:../../libdaisy//src/ui/AbstractMenu.h ****         {
 121:../../libdaisy//src/ui/AbstractMenu.h ****             (void)(increments);              // silence unused variable warnings
 122:../../libdaisy//src/ui/AbstractMenu.h ****             (void)(stepsPerRevolution);      // silence unused variable warnings
 123:../../libdaisy//src/ui/AbstractMenu.h ****             (void)(isFunctionButtonPressed); // silence unused variable warnings
 124:../../libdaisy//src/ui/AbstractMenu.h ****         };
 125:../../libdaisy//src/ui/AbstractMenu.h **** 
 126:../../libdaisy//src/ui/AbstractMenu.h ****         /** Called when the value slider is used to modify the value. */
 127:../../libdaisy//src/ui/AbstractMenu.h ****         virtual void ModifyValue(float valueSliderPosition0To1,
 128:../../libdaisy//src/ui/AbstractMenu.h ****                                  bool  isFunctionButtonPressed)
 129:../../libdaisy//src/ui/AbstractMenu.h ****         {
 130:../../libdaisy//src/ui/AbstractMenu.h ****             (void)(valueSliderPosition0To1); // silence unused variable warnings
 131:../../libdaisy//src/ui/AbstractMenu.h ****             (void)(isFunctionButtonPressed); // silence unused variable warnings
 132:../../libdaisy//src/ui/AbstractMenu.h ****         };
 133:../../libdaisy//src/ui/AbstractMenu.h **** 
ARM GAS  /var/folders/wr/bk9txnv930v5t7d_4s42nmkm0000gq/T//ccJtZ1lc.s 			page 36


 134:../../libdaisy//src/ui/AbstractMenu.h ****         /** Called when the okay button is pressed (and CanBeEnteredForEditing() returns false). */
 135:../../libdaisy//src/ui/AbstractMenu.h ****         virtual void OnOkayButton(){};
 136:../../libdaisy//src/ui/AbstractMenu.h ****     };
 137:../../libdaisy//src/ui/AbstractMenu.h **** 
 138:../../libdaisy//src/ui/AbstractMenu.h ****     struct ItemConfig
 139:../../libdaisy//src/ui/AbstractMenu.h ****     {
 140:../../libdaisy//src/ui/AbstractMenu.h ****         /** The type of item */
 141:../../libdaisy//src/ui/AbstractMenu.h ****         ItemType type = ItemType::closeMenuItem;
 142:../../libdaisy//src/ui/AbstractMenu.h ****         /** The name/text to display */
 143:../../libdaisy//src/ui/AbstractMenu.h ****         const char* text = "";
 144:../../libdaisy//src/ui/AbstractMenu.h **** 
 145:../../libdaisy//src/ui/AbstractMenu.h ****         /** additional properties that depend on the value of `type` */
 146:../../libdaisy//src/ui/AbstractMenu.h ****         union
 147:../../libdaisy//src/ui/AbstractMenu.h ****         {
 148:../../libdaisy//src/ui/AbstractMenu.h ****             /** Properties for type == ItemType::callbackFunctionItem */
 149:../../libdaisy//src/ui/AbstractMenu.h ****             struct
 150:../../libdaisy//src/ui/AbstractMenu.h ****             {
 151:../../libdaisy//src/ui/AbstractMenu.h ****                 void (*callbackFunction)(void* context);
 152:../../libdaisy//src/ui/AbstractMenu.h ****                 void* context;
 153:../../libdaisy//src/ui/AbstractMenu.h ****             } asCallbackFunctionItem;
 154:../../libdaisy//src/ui/AbstractMenu.h **** 
 155:../../libdaisy//src/ui/AbstractMenu.h ****             /** Properties for type == ItemType::checkboxItem */
 156:../../libdaisy//src/ui/AbstractMenu.h ****             struct
 157:../../libdaisy//src/ui/AbstractMenu.h ****             {
 158:../../libdaisy//src/ui/AbstractMenu.h ****                 /** The variable to modify. */
 159:../../libdaisy//src/ui/AbstractMenu.h ****                 bool* valueToModify;
 160:../../libdaisy//src/ui/AbstractMenu.h ****             } asCheckboxItem;
 161:../../libdaisy//src/ui/AbstractMenu.h **** 
 162:../../libdaisy//src/ui/AbstractMenu.h ****             /** Properties for type == ItemType::valueItem */
 163:../../libdaisy//src/ui/AbstractMenu.h ****             struct
 164:../../libdaisy//src/ui/AbstractMenu.h ****             {
 165:../../libdaisy//src/ui/AbstractMenu.h ****                 /** The variable to modify. */
 166:../../libdaisy//src/ui/AbstractMenu.h ****                 MappedValue* valueToModify;
 167:../../libdaisy//src/ui/AbstractMenu.h ****             } asMappedValueItem;
 168:../../libdaisy//src/ui/AbstractMenu.h **** 
 169:../../libdaisy//src/ui/AbstractMenu.h ****             /** Properties for type == ItemType::openUiPageItem */
 170:../../libdaisy//src/ui/AbstractMenu.h ****             struct
 171:../../libdaisy//src/ui/AbstractMenu.h ****             {
 172:../../libdaisy//src/ui/AbstractMenu.h ****                 /** The UiPage to open when the okay button is pressed.
 173:../../libdaisy//src/ui/AbstractMenu.h ****                  *  The object must stay alive longer than the MenuPage, 
 174:../../libdaisy//src/ui/AbstractMenu.h ****                  *  e.g. as a global variable. */
 175:../../libdaisy//src/ui/AbstractMenu.h ****                 UiPage* pageToOpen;
 176:../../libdaisy//src/ui/AbstractMenu.h ****             } asOpenUiPageItem;
 177:../../libdaisy//src/ui/AbstractMenu.h **** 
 178:../../libdaisy//src/ui/AbstractMenu.h ****             /** Properties for type == ItemType::customItem */
 179:../../libdaisy//src/ui/AbstractMenu.h ****             struct
 180:../../libdaisy//src/ui/AbstractMenu.h ****             {
 181:../../libdaisy//src/ui/AbstractMenu.h ****                 /** The CustomItem to display. The object provided here must 
 182:../../libdaisy//src/ui/AbstractMenu.h ****                  *  stay alive longer than the MenuPage, e.g. as a global variable. */
 183:../../libdaisy//src/ui/AbstractMenu.h ****                 CustomItem* itemObject;
 184:../../libdaisy//src/ui/AbstractMenu.h ****             } asCustomItem;
 185:../../libdaisy//src/ui/AbstractMenu.h ****         };
 186:../../libdaisy//src/ui/AbstractMenu.h ****     };
 187:../../libdaisy//src/ui/AbstractMenu.h **** 
 188:../../libdaisy//src/ui/AbstractMenu.h ****     AbstractMenu() = default;
 189:../../libdaisy//src/ui/AbstractMenu.h ****     virtual ~AbstractMenu() override {}
 402              		.loc 19 189 13 view .LVU47
ARM GAS  /var/folders/wr/bk9txnv930v5t7d_4s42nmkm0000gq/T//ccJtZ1lc.s 			page 37


 403              	.LBB1769:
 404              	.LBI1769:
 405              		.file 20 "../../libdaisy//src/ui/UI.h"
   1:../../libdaisy//src/ui/UI.h **** #pragma once
   2:../../libdaisy//src/ui/UI.h **** #include <initializer_list>
   3:../../libdaisy//src/ui/UI.h **** #include "UiEventQueue.h"
   4:../../libdaisy//src/ui/UI.h **** #include "../util/Stack.h"
   5:../../libdaisy//src/ui/UI.h **** 
   6:../../libdaisy//src/ui/UI.h **** namespace daisy
   7:../../libdaisy//src/ui/UI.h **** {
   8:../../libdaisy//src/ui/UI.h **** class UI;
   9:../../libdaisy//src/ui/UI.h **** 
  10:../../libdaisy//src/ui/UI.h **** /** @brief The type of arrow button in the UI system.
  11:../../libdaisy//src/ui/UI.h ****  *  @author jelliesen
  12:../../libdaisy//src/ui/UI.h ****  *  @addtogroup ui
  13:../../libdaisy//src/ui/UI.h ****  */
  14:../../libdaisy//src/ui/UI.h **** enum class ArrowButtonType
  15:../../libdaisy//src/ui/UI.h **** {
  16:../../libdaisy//src/ui/UI.h ****     /** The left arrow button. */
  17:../../libdaisy//src/ui/UI.h ****     left = 0,
  18:../../libdaisy//src/ui/UI.h ****     /** The right arrow button. */
  19:../../libdaisy//src/ui/UI.h ****     right,
  20:../../libdaisy//src/ui/UI.h ****     /** The up arrow button. */
  21:../../libdaisy//src/ui/UI.h ****     up,
  22:../../libdaisy//src/ui/UI.h ****     /** The down arrow button. */
  23:../../libdaisy//src/ui/UI.h ****     down
  24:../../libdaisy//src/ui/UI.h **** };
  25:../../libdaisy//src/ui/UI.h **** 
  26:../../libdaisy//src/ui/UI.h **** /** @brief A descriptor for a canvas in the UI system.
  27:../../libdaisy//src/ui/UI.h ****  *  @author jelliesen
  28:../../libdaisy//src/ui/UI.h ****  *  @addtogroup ui
  29:../../libdaisy//src/ui/UI.h ****  * 
  30:../../libdaisy//src/ui/UI.h ****  *  A descriptor for a generic display / led / output device 
  31:../../libdaisy//src/ui/UI.h ****  *  that's used in the UI system.
  32:../../libdaisy//src/ui/UI.h ****  */
  33:../../libdaisy//src/ui/UI.h **** struct UiCanvasDescriptor
  34:../../libdaisy//src/ui/UI.h **** {
  35:../../libdaisy//src/ui/UI.h ****     /** An id number to tell apart various types of canvases that 
  36:../../libdaisy//src/ui/UI.h ****      *  are used concurrently in your system. */
  37:../../libdaisy//src/ui/UI.h ****     uint8_t id_;
  38:../../libdaisy//src/ui/UI.h **** 
  39:../../libdaisy//src/ui/UI.h ****     /** A pointer to some object that allows to draw to the canvas. 
  40:../../libdaisy//src/ui/UI.h ****      *  In your UI pages, you will use the id_ to identify which canvas this is, 
  41:../../libdaisy//src/ui/UI.h ****      *  and then cast this pointer to whatever object it represents, e.g. OledDisplay.
  42:../../libdaisy//src/ui/UI.h ****      */
  43:../../libdaisy//src/ui/UI.h ****     void* handle_;
  44:../../libdaisy//src/ui/UI.h **** 
  45:../../libdaisy//src/ui/UI.h ****     /** The desired update rate in ms */
  46:../../libdaisy//src/ui/UI.h ****     uint32_t updateRateMs_;
  47:../../libdaisy//src/ui/UI.h **** 
  48:../../libdaisy//src/ui/UI.h ****     /** A function to clear the display before the UiPages are drawn. */
  49:../../libdaisy//src/ui/UI.h ****     using ClearFuncPtr = void (*)(const UiCanvasDescriptor& canvasToClear);
  50:../../libdaisy//src/ui/UI.h ****     ClearFuncPtr clearFunction_;
  51:../../libdaisy//src/ui/UI.h **** 
  52:../../libdaisy//src/ui/UI.h ****     /** A function to call when all UIPages have finished the drawing procedure 
  53:../../libdaisy//src/ui/UI.h ****      *  and the results can be flushed out to the device.
  54:../../libdaisy//src/ui/UI.h ****      */
ARM GAS  /var/folders/wr/bk9txnv930v5t7d_4s42nmkm0000gq/T//ccJtZ1lc.s 			page 38


  55:../../libdaisy//src/ui/UI.h ****     using FlushFuncPtr = void (*)(const UiCanvasDescriptor& canvasToFlush);
  56:../../libdaisy//src/ui/UI.h ****     FlushFuncPtr flushFunction_;
  57:../../libdaisy//src/ui/UI.h **** };
  58:../../libdaisy//src/ui/UI.h **** 
  59:../../libdaisy//src/ui/UI.h **** class OneBitGraphicsLookAndFeel;
  60:../../libdaisy//src/ui/UI.h **** 
  61:../../libdaisy//src/ui/UI.h **** /** @brief The base class for a page in the UI system.
  62:../../libdaisy//src/ui/UI.h ****  *  @author jelliesen
  63:../../libdaisy//src/ui/UI.h ****  *  @addtogroup ui
  64:../../libdaisy//src/ui/UI.h ****  */
  65:../../libdaisy//src/ui/UI.h **** class UiPage
  66:../../libdaisy//src/ui/UI.h **** {
  67:../../libdaisy//src/ui/UI.h ****   public:
  68:../../libdaisy//src/ui/UI.h ****     UiPage() : parent_(nullptr) {}
  69:../../libdaisy//src/ui/UI.h **** 
  70:../../libdaisy//src/ui/UI.h ****     virtual ~UiPage() {}
 406              		.loc 20 70 13 view .LVU48
 407              		.loc 20 70 13 is_stmt 0 view .LVU49
 408              	.LBE1769:
 409              	.LBE1768:
 410              		.loc 18 25 7 view .LVU50
 411 0000 7047     		bx	lr
 412              		.cfi_endproc
 413              	.LFE4994:
 415              		.weak	_ZN5daisy18FullScreenItemMenuD1Ev
 416              		.thumb_set _ZN5daisy18FullScreenItemMenuD1Ev,_ZN5daisy18FullScreenItemMenuD2Ev
 417 0002 00BF     		.section	.text._ZN5daisy11OledDisplayINS_13SSD130xDriverILj128ELj64ENS_24SSD130x4WireSpiTransportE
 418              		.align	1
 419              		.p2align 2,,3
 420              		.weak	_ZN5daisy11OledDisplayINS_13SSD130xDriverILj128ELj64ENS_24SSD130x4WireSpiTransportEEEED2Ev
 421              		.syntax unified
 422              		.thumb
 423              		.thumb_func
 424              		.fpu fpv5-d16
 426              	_ZN5daisy11OledDisplayINS_13SSD130xDriverILj128ELj64ENS_24SSD130x4WireSpiTransportEEEED2Ev:
 427              	.LVL16:
 428              	.LFB4998:
  17:../../libdaisy//src/hid/disp/oled_display.h **** 
 429              		.loc 16 17 13 is_stmt 1 view -0
 430              		.cfi_startproc
 431              		@ args = 0, pretend = 0, frame = 0
 432              		@ frame_needed = 0, uses_anonymous_args = 0
 433              		@ link register save eliminated.
 434              	.LBB1770:
 435              	.LBI1770:
 436              		.file 21 "../../libdaisy//src/hid/disp/display.h"
   1:../../libdaisy//src/hid/disp/display.h **** #pragma once
   2:../../libdaisy//src/hid/disp/display.h **** #ifndef DSY_DISPLAY_H
   3:../../libdaisy//src/hid/disp/display.h **** #define DSY_DISPLAY_H /**< Macro */
   4:../../libdaisy//src/hid/disp/display.h **** #include <cmath>
   5:../../libdaisy//src/hid/disp/display.h **** #include "util/oled_fonts.h"
   6:../../libdaisy//src/hid/disp/display.h **** #include "daisy_core.h"
   7:../../libdaisy//src/hid/disp/display.h **** #include "graphics_common.h"
   8:../../libdaisy//src/hid/disp/display.h **** 
   9:../../libdaisy//src/hid/disp/display.h **** #ifndef deg2rad
  10:../../libdaisy//src/hid/disp/display.h **** #define deg2rad(deg) ((deg)*3.141592 / 180.0)
  11:../../libdaisy//src/hid/disp/display.h **** #endif
ARM GAS  /var/folders/wr/bk9txnv930v5t7d_4s42nmkm0000gq/T//ccJtZ1lc.s 			page 39


  12:../../libdaisy//src/hid/disp/display.h **** 
  13:../../libdaisy//src/hid/disp/display.h **** namespace daisy
  14:../../libdaisy//src/hid/disp/display.h **** {
  15:../../libdaisy//src/hid/disp/display.h **** /** 
  16:../../libdaisy//src/hid/disp/display.h ****  * This interface is used as a base class for all types of 1bit-per-pixel
  17:../../libdaisy//src/hid/disp/display.h ****  * graphics displays.
  18:../../libdaisy//src/hid/disp/display.h **** */
  19:../../libdaisy//src/hid/disp/display.h **** class OneBitGraphicsDisplay
  20:../../libdaisy//src/hid/disp/display.h **** {
  21:../../libdaisy//src/hid/disp/display.h ****   public:
  22:../../libdaisy//src/hid/disp/display.h ****     OneBitGraphicsDisplay() {}
  23:../../libdaisy//src/hid/disp/display.h ****     virtual ~OneBitGraphicsDisplay() {}
  24:../../libdaisy//src/hid/disp/display.h **** 
  25:../../libdaisy//src/hid/disp/display.h ****     virtual uint16_t Height() const = 0;
  26:../../libdaisy//src/hid/disp/display.h ****     virtual uint16_t Width() const  = 0;
  27:../../libdaisy//src/hid/disp/display.h **** 
  28:../../libdaisy//src/hid/disp/display.h ****     Rectangle GetBounds() const
  29:../../libdaisy//src/hid/disp/display.h ****     {
  30:../../libdaisy//src/hid/disp/display.h ****         return Rectangle(int16_t(Width()), int16_t(Height()));
  31:../../libdaisy//src/hid/disp/display.h ****     }
  32:../../libdaisy//src/hid/disp/display.h **** 
  33:../../libdaisy//src/hid/disp/display.h **** 
  34:../../libdaisy//src/hid/disp/display.h ****     size_t CurrentX() { return currentX_; };
  35:../../libdaisy//src/hid/disp/display.h ****     size_t CurrentY() { return currentY_; };
  36:../../libdaisy//src/hid/disp/display.h **** 
  37:../../libdaisy//src/hid/disp/display.h ****     /** 
  38:../../libdaisy//src/hid/disp/display.h ****     Fills the entire display with either on/off.
  39:../../libdaisy//src/hid/disp/display.h ****     \param on Sets on or off.
  40:../../libdaisy//src/hid/disp/display.h ****     */
  41:../../libdaisy//src/hid/disp/display.h ****     virtual void Fill(bool on) = 0;
  42:../../libdaisy//src/hid/disp/display.h **** 
  43:../../libdaisy//src/hid/disp/display.h ****     /**
  44:../../libdaisy//src/hid/disp/display.h ****     Sets the pixel at the specified coordinate to be on/off.
  45:../../libdaisy//src/hid/disp/display.h ****     \param x   x Coordinate
  46:../../libdaisy//src/hid/disp/display.h ****     \param y   y coordinate
  47:../../libdaisy//src/hid/disp/display.h ****     \param on  on or off
  48:../../libdaisy//src/hid/disp/display.h ****     */
  49:../../libdaisy//src/hid/disp/display.h ****     virtual void DrawPixel(uint_fast8_t x, uint_fast8_t y, bool on) = 0;
  50:../../libdaisy//src/hid/disp/display.h **** 
  51:../../libdaisy//src/hid/disp/display.h ****     /**
  52:../../libdaisy//src/hid/disp/display.h ****     Draws a line from (x1, y1) to (y1, y2)
  53:../../libdaisy//src/hid/disp/display.h ****     \param x1  x Coordinate of the starting point
  54:../../libdaisy//src/hid/disp/display.h ****     \param y1  y Coordinate of the starting point
  55:../../libdaisy//src/hid/disp/display.h ****     \param x2  x Coordinate of the ending point
  56:../../libdaisy//src/hid/disp/display.h ****     \param y2  y Coordinate of the ending point
  57:../../libdaisy//src/hid/disp/display.h ****     \param on  on or off
  58:../../libdaisy//src/hid/disp/display.h ****     */
  59:../../libdaisy//src/hid/disp/display.h ****     virtual void DrawLine(uint_fast8_t x1,
  60:../../libdaisy//src/hid/disp/display.h ****                           uint_fast8_t y1,
  61:../../libdaisy//src/hid/disp/display.h ****                           uint_fast8_t x2,
  62:../../libdaisy//src/hid/disp/display.h ****                           uint_fast8_t y2,
  63:../../libdaisy//src/hid/disp/display.h ****                           bool         on)
  64:../../libdaisy//src/hid/disp/display.h ****         = 0;
  65:../../libdaisy//src/hid/disp/display.h **** 
  66:../../libdaisy//src/hid/disp/display.h ****     /**
  67:../../libdaisy//src/hid/disp/display.h ****     Draws a rectangle based on two coordinates.
  68:../../libdaisy//src/hid/disp/display.h ****     \param x1 x Coordinate of the first point
ARM GAS  /var/folders/wr/bk9txnv930v5t7d_4s42nmkm0000gq/T//ccJtZ1lc.s 			page 40


  69:../../libdaisy//src/hid/disp/display.h ****     \param y1 y Coordinate of the first point
  70:../../libdaisy//src/hid/disp/display.h ****     \param x2 x Coordinate of the second point
  71:../../libdaisy//src/hid/disp/display.h ****     \param y2 y Coordinate of the second point
  72:../../libdaisy//src/hid/disp/display.h ****     \param on on or off
  73:../../libdaisy//src/hid/disp/display.h ****     \param fill fill the rectangle or draw only the outline
  74:../../libdaisy//src/hid/disp/display.h ****     */
  75:../../libdaisy//src/hid/disp/display.h ****     virtual void DrawRect(uint_fast8_t x1,
  76:../../libdaisy//src/hid/disp/display.h ****                           uint_fast8_t y1,
  77:../../libdaisy//src/hid/disp/display.h ****                           uint_fast8_t x2,
  78:../../libdaisy//src/hid/disp/display.h ****                           uint_fast8_t y2,
  79:../../libdaisy//src/hid/disp/display.h ****                           bool         on,
  80:../../libdaisy//src/hid/disp/display.h ****                           bool         fill = false)
  81:../../libdaisy//src/hid/disp/display.h ****         = 0;
  82:../../libdaisy//src/hid/disp/display.h **** 
  83:../../libdaisy//src/hid/disp/display.h ****     /**
  84:../../libdaisy//src/hid/disp/display.h ****     Draws a rectangle.
  85:../../libdaisy//src/hid/disp/display.h ****     \param rect the rectangle
  86:../../libdaisy//src/hid/disp/display.h ****     \param on   on or off
  87:../../libdaisy//src/hid/disp/display.h ****     \param fill fill the rectangle or draw only the outline
  88:../../libdaisy//src/hid/disp/display.h ****     */
  89:../../libdaisy//src/hid/disp/display.h ****     void DrawRect(const Rectangle& rect, bool on, bool fill = false)
  90:../../libdaisy//src/hid/disp/display.h ****     {
  91:../../libdaisy//src/hid/disp/display.h ****         DrawRect(rect.GetX(),
  92:../../libdaisy//src/hid/disp/display.h ****                  rect.GetY(),
  93:../../libdaisy//src/hid/disp/display.h ****                  rect.GetRight(),
  94:../../libdaisy//src/hid/disp/display.h ****                  rect.GetBottom(),
  95:../../libdaisy//src/hid/disp/display.h ****                  on,
  96:../../libdaisy//src/hid/disp/display.h ****                  fill);
  97:../../libdaisy//src/hid/disp/display.h ****     }
  98:../../libdaisy//src/hid/disp/display.h **** 
  99:../../libdaisy//src/hid/disp/display.h ****     /**
 100:../../libdaisy//src/hid/disp/display.h ****     Draws an arc around the specified coordinate
 101:../../libdaisy//src/hid/disp/display.h ****     \param x           x Coordinate of the center of the arc
 102:../../libdaisy//src/hid/disp/display.h ****     \param y           y Coordinate of the center of the arc
 103:../../libdaisy//src/hid/disp/display.h ****     \param radius      radius of the arc
 104:../../libdaisy//src/hid/disp/display.h ****     \param start_angle angle where to start the arc
 105:../../libdaisy//src/hid/disp/display.h ****     \param sweep       total angle of the arc
 106:../../libdaisy//src/hid/disp/display.h ****     \param on  on or off
 107:../../libdaisy//src/hid/disp/display.h ****     */
 108:../../libdaisy//src/hid/disp/display.h ****     virtual void DrawArc(uint_fast8_t x,
 109:../../libdaisy//src/hid/disp/display.h ****                          uint_fast8_t y,
 110:../../libdaisy//src/hid/disp/display.h ****                          uint_fast8_t radius,
 111:../../libdaisy//src/hid/disp/display.h ****                          int_fast16_t start_angle,
 112:../../libdaisy//src/hid/disp/display.h ****                          int_fast16_t sweep,
 113:../../libdaisy//src/hid/disp/display.h ****                          bool         on)
 114:../../libdaisy//src/hid/disp/display.h ****         = 0;
 115:../../libdaisy//src/hid/disp/display.h **** 
 116:../../libdaisy//src/hid/disp/display.h ****     /**
 117:../../libdaisy//src/hid/disp/display.h ****     Draws a circle around the specified coordinate
 118:../../libdaisy//src/hid/disp/display.h ****     \param x           x Coordinate of the center of the circle
 119:../../libdaisy//src/hid/disp/display.h ****     \param y           y Coordinate of the center of the circle
 120:../../libdaisy//src/hid/disp/display.h ****     \param radius      radius of the circle
 121:../../libdaisy//src/hid/disp/display.h ****     \param on  on or off
 122:../../libdaisy//src/hid/disp/display.h ****     */
 123:../../libdaisy//src/hid/disp/display.h ****     void
 124:../../libdaisy//src/hid/disp/display.h ****     DrawCircle(uint_fast8_t x, uint_fast8_t y, uint_fast8_t radius, bool on)
 125:../../libdaisy//src/hid/disp/display.h ****     {
ARM GAS  /var/folders/wr/bk9txnv930v5t7d_4s42nmkm0000gq/T//ccJtZ1lc.s 			page 41


 126:../../libdaisy//src/hid/disp/display.h ****         DrawArc(x, y, radius, 0, 360, on);
 127:../../libdaisy//src/hid/disp/display.h ****     };
 128:../../libdaisy//src/hid/disp/display.h **** 
 129:../../libdaisy//src/hid/disp/display.h ****     /** 
 130:../../libdaisy//src/hid/disp/display.h ****     Writes the character with the specific FontDef
 131:../../libdaisy//src/hid/disp/display.h ****     to the display buffer at the current Cursor position.
 132:../../libdaisy//src/hid/disp/display.h ****     \param ch character to be written
 133:../../libdaisy//src/hid/disp/display.h ****     \param font font to be written in
 134:../../libdaisy//src/hid/disp/display.h ****     \param on    on or off
 135:../../libdaisy//src/hid/disp/display.h ****     \return &
 136:../../libdaisy//src/hid/disp/display.h ****     */
 137:../../libdaisy//src/hid/disp/display.h ****     virtual char WriteChar(char ch, FontDef font, bool on) = 0;
 138:../../libdaisy//src/hid/disp/display.h **** 
 139:../../libdaisy//src/hid/disp/display.h ****     /** 
 140:../../libdaisy//src/hid/disp/display.h ****     Similar to WriteChar, except it will handle an entire String.
 141:../../libdaisy//src/hid/disp/display.h ****     Wrapping does not happen automatically, so the width
 142:../../libdaisy//src/hid/disp/display.h ****     of the string must be kept within the dimensions of the screen.
 143:../../libdaisy//src/hid/disp/display.h ****     \param str string to be written
 144:../../libdaisy//src/hid/disp/display.h ****     \param font font to use
 145:../../libdaisy//src/hid/disp/display.h ****     \param on  on or off
 146:../../libdaisy//src/hid/disp/display.h ****     \return &
 147:../../libdaisy//src/hid/disp/display.h ****     */
 148:../../libdaisy//src/hid/disp/display.h ****     virtual char WriteString(const char* str, FontDef font, bool on) = 0;
 149:../../libdaisy//src/hid/disp/display.h **** 
 150:../../libdaisy//src/hid/disp/display.h ****     /** 
 151:../../libdaisy//src/hid/disp/display.h ****     Similar to WriteString but justified within a bounding box.
 152:../../libdaisy//src/hid/disp/display.h ****     \param str          string to be written
 153:../../libdaisy//src/hid/disp/display.h ****     \param font         font to use
 154:../../libdaisy//src/hid/disp/display.h ****     \param boundingBox  the bounding box to draw the text in
 155:../../libdaisy//src/hid/disp/display.h ****     \param alignment    the alignment to use
 156:../../libdaisy//src/hid/disp/display.h ****     \param on           on or off
 157:../../libdaisy//src/hid/disp/display.h ****     \return The rectangle that was drawn to
 158:../../libdaisy//src/hid/disp/display.h ****     */
 159:../../libdaisy//src/hid/disp/display.h ****     virtual Rectangle WriteStringAligned(const char*    str,
 160:../../libdaisy//src/hid/disp/display.h ****                                          const FontDef& font,
 161:../../libdaisy//src/hid/disp/display.h ****                                          Rectangle      boundingBox,
 162:../../libdaisy//src/hid/disp/display.h ****                                          Alignment      alignment,
 163:../../libdaisy//src/hid/disp/display.h ****                                          bool           on)
 164:../../libdaisy//src/hid/disp/display.h ****         = 0;
 165:../../libdaisy//src/hid/disp/display.h **** 
 166:../../libdaisy//src/hid/disp/display.h ****     /** 
 167:../../libdaisy//src/hid/disp/display.h ****     Moves the 'Cursor' position used for WriteChar, and WriteStr to the specified coordinate.
 168:../../libdaisy//src/hid/disp/display.h ****     \param x x pos
 169:../../libdaisy//src/hid/disp/display.h ****     \param y y pos
 170:../../libdaisy//src/hid/disp/display.h ****     */
 171:../../libdaisy//src/hid/disp/display.h ****     void SetCursor(uint16_t x, uint16_t y)
 172:../../libdaisy//src/hid/disp/display.h ****     {
 173:../../libdaisy//src/hid/disp/display.h ****         currentX_ = (x >= Width()) ? Width() - 1 : x;
 174:../../libdaisy//src/hid/disp/display.h ****         currentY_ = (y >= Height()) ? Height() - 1 : y;
 175:../../libdaisy//src/hid/disp/display.h ****     }
 176:../../libdaisy//src/hid/disp/display.h **** 
 177:../../libdaisy//src/hid/disp/display.h ****     /** 
 178:../../libdaisy//src/hid/disp/display.h ****     Writes the current display buffer to the OLED device using SPI or I2C depending on 
 179:../../libdaisy//src/hid/disp/display.h ****     how the object was initialized.
 180:../../libdaisy//src/hid/disp/display.h ****     */
 181:../../libdaisy//src/hid/disp/display.h ****     virtual void Update() = 0;
 182:../../libdaisy//src/hid/disp/display.h **** 
ARM GAS  /var/folders/wr/bk9txnv930v5t7d_4s42nmkm0000gq/T//ccJtZ1lc.s 			page 42


 183:../../libdaisy//src/hid/disp/display.h ****   protected:
 184:../../libdaisy//src/hid/disp/display.h ****     uint16_t currentX_;
 185:../../libdaisy//src/hid/disp/display.h ****     uint16_t currentY_;
 186:../../libdaisy//src/hid/disp/display.h **** };
 187:../../libdaisy//src/hid/disp/display.h **** 
 188:../../libdaisy//src/hid/disp/display.h **** /** This class is intended as a intermediary class for your actual implementation of the OneBitGrap
 189:../../libdaisy//src/hid/disp/display.h ****  *  interface. It uses the CRTP design pattern where the template argument is the child class. It p
 190:../../libdaisy//src/hid/disp/display.h ****  *  implementations for most of the functions, except DrawPixel(), Update() and Fill(), which you'l
 191:../../libdaisy//src/hid/disp/display.h ****  *  to provide in your child class.
 192:../../libdaisy//src/hid/disp/display.h ****  *  The main goal of this class is to provide common drawing functions without relying on massive a
 193:../../libdaisy//src/hid/disp/display.h ****  *  virtual function calls that would result in a performance loss. To achieve this, any drawing fu
 194:../../libdaisy//src/hid/disp/display.h ****  *  is implemented here and internally calls other drawing functions (e.g. DrawRect() which interna
 195:../../libdaisy//src/hid/disp/display.h ****  *  DrawPixel() and DrawLine()) makes these calls via the qualified name of these functions to expl
 196:../../libdaisy//src/hid/disp/display.h ****  *  suppress the virtual dispatch mechanism like this:
 197:../../libdaisy//src/hid/disp/display.h ****  * 
 198:../../libdaisy//src/hid/disp/display.h ****  *      ChildType::DrawPixel(...); // no virtual function call; direct call into the child class fu
 199:../../libdaisy//src/hid/disp/display.h ****  *  
 200:../../libdaisy//src/hid/disp/display.h ****  *  To create a custom OneBitGraphicsDisplay implementation, you can 
 201:../../libdaisy//src/hid/disp/display.h ****  *  A) inherit from OneBitGraphicsDisplay directly and provide all the drawing functions yourself
 202:../../libdaisy//src/hid/disp/display.h ****  *  B) Inherit from OneBitGraphicsDisplayImpl and only provide DrawPixel(), Fill() and Update()
 203:../../libdaisy//src/hid/disp/display.h ****  *     like this:
 204:../../libdaisy//src/hid/disp/display.h ****  *  
 205:../../libdaisy//src/hid/disp/display.h ****  *      class MyDisplayClass : public OneBitGraphicsDisplayImpl<MyDisplayClass> 
 206:../../libdaisy//src/hid/disp/display.h ****  *      {
 207:../../libdaisy//src/hid/disp/display.h ****  *      public:
 208:../../libdaisy//src/hid/disp/display.h ****  *          void Fill() override { ... };
 209:../../libdaisy//src/hid/disp/display.h ****  *          void DrawPixel(uint_fast8_t x, uint_fast8_t y, bool on) override { ... };
 210:../../libdaisy//src/hid/disp/display.h ****  *          void Update() override { ... }
 211:../../libdaisy//src/hid/disp/display.h ****  *      };
 212:../../libdaisy//src/hid/disp/display.h ****  *  
 213:../../libdaisy//src/hid/disp/display.h ****  */
 214:../../libdaisy//src/hid/disp/display.h **** template <class ChildType>
 215:../../libdaisy//src/hid/disp/display.h **** class OneBitGraphicsDisplayImpl : public OneBitGraphicsDisplay
 216:../../libdaisy//src/hid/disp/display.h **** {
 217:../../libdaisy//src/hid/disp/display.h ****   public:
 218:../../libdaisy//src/hid/disp/display.h ****     OneBitGraphicsDisplayImpl() {}
 219:../../libdaisy//src/hid/disp/display.h ****     virtual ~OneBitGraphicsDisplayImpl() {}
 437              		.loc 21 219 13 view .LVU52
 438              	.LBB1771:
 439              	.LBI1771:
  23:../../libdaisy//src/hid/disp/display.h **** 
 440              		.loc 21 23 13 view .LVU53
  23:../../libdaisy//src/hid/disp/display.h **** 
 441              		.loc 21 23 13 is_stmt 0 view .LVU54
 442              	.LBE1771:
 443              	.LBE1770:
  17:../../libdaisy//src/hid/disp/oled_display.h **** 
 444              		.loc 16 17 29 view .LVU55
 445 0000 7047     		bx	lr
 446              		.cfi_endproc
 447              	.LFE4998:
 449              		.weak	_ZN5daisy11OledDisplayINS_13SSD130xDriverILj128ELj64ENS_24SSD130x4WireSpiTransportEEEED1Ev
 450              		.thumb_set _ZN5daisy11OledDisplayINS_13SSD130xDriverILj128ELj64ENS_24SSD130x4WireSpiTransportEEEED
 451 0002 00BF     		.section	.text._ZNK5daisy11OledDisplayINS_13SSD130xDriverILj128ELj64ENS_24SSD130x4WireSpiTransport
 452              		.align	1
 453              		.p2align 2,,3
 454              		.weak	_ZNK5daisy11OledDisplayINS_13SSD130xDriverILj128ELj64ENS_24SSD130x4WireSpiTransportEEEE6Heig
ARM GAS  /var/folders/wr/bk9txnv930v5t7d_4s42nmkm0000gq/T//ccJtZ1lc.s 			page 43


 455              		.syntax unified
 456              		.thumb
 457              		.thumb_func
 458              		.fpu fpv5-d16
 460              	_ZNK5daisy11OledDisplayINS_13SSD130xDriverILj128ELj64ENS_24SSD130x4WireSpiTransportEEEE6HeightEv:
 461              	.LVL17:
 462              	.LFB5001:
  26:../../libdaisy//src/hid/disp/oled_display.h ****     uint16_t Width() const override { return driver_.Width(); }
 463              		.loc 16 26 14 is_stmt 1 view -0
 464              		.cfi_startproc
 465              		@ args = 0, pretend = 0, frame = 0
 466              		@ frame_needed = 0, uses_anonymous_args = 0
 467              		@ link register save eliminated.
  26:../../libdaisy//src/hid/disp/oled_display.h ****     uint16_t Width() const override { return driver_.Width(); }
 468              		.loc 16 26 65 is_stmt 0 view .LVU57
 469 0000 4020     		movs	r0, #64
 470              	.LVL18:
  26:../../libdaisy//src/hid/disp/oled_display.h ****     uint16_t Width() const override { return driver_.Width(); }
 471              		.loc 16 26 65 view .LVU58
 472 0002 7047     		bx	lr
 473              		.cfi_endproc
 474              	.LFE5001:
 476              		.section	.text._ZNK5daisy11OledDisplayINS_13SSD130xDriverILj128ELj64ENS_24SSD130x4WireSpiTransport
 477              		.align	1
 478              		.p2align 2,,3
 479              		.weak	_ZNK5daisy11OledDisplayINS_13SSD130xDriverILj128ELj64ENS_24SSD130x4WireSpiTransportEEEE5Widt
 480              		.syntax unified
 481              		.thumb
 482              		.thumb_func
 483              		.fpu fpv5-d16
 485              	_ZNK5daisy11OledDisplayINS_13SSD130xDriverILj128ELj64ENS_24SSD130x4WireSpiTransportEEEE5WidthEv:
 486              	.LVL19:
 487              	.LFB5002:
  27:../../libdaisy//src/hid/disp/oled_display.h **** 
 488              		.loc 16 27 14 is_stmt 1 view -0
 489              		.cfi_startproc
 490              		@ args = 0, pretend = 0, frame = 0
 491              		@ frame_needed = 0, uses_anonymous_args = 0
 492              		@ link register save eliminated.
  27:../../libdaisy//src/hid/disp/oled_display.h **** 
 493              		.loc 16 27 63 is_stmt 0 view .LVU60
 494 0000 8020     		movs	r0, #128
 495              	.LVL20:
  27:../../libdaisy//src/hid/disp/oled_display.h **** 
 496              		.loc 16 27 63 view .LVU61
 497 0002 7047     		bx	lr
 498              		.cfi_endproc
 499              	.LFE5002:
 501              		.section	.text._ZN5daisy11MidiHandlerINS_16MidiUsbTransportEED2Ev,"axG",%progbits,_ZN5daisy11MidiH
 502              		.align	1
 503              		.p2align 2,,3
 504              		.weak	_ZN5daisy11MidiHandlerINS_16MidiUsbTransportEED2Ev
 505              		.syntax unified
 506              		.thumb
 507              		.thumb_func
 508              		.fpu fpv5-d16
 510              	_ZN5daisy11MidiHandlerINS_16MidiUsbTransportEED2Ev:
ARM GAS  /var/folders/wr/bk9txnv930v5t7d_4s42nmkm0000gq/T//ccJtZ1lc.s 			page 44


 511              	.LVL21:
 512              	.LFB5011:
 513              		.file 22 "../../libdaisy//src/hid/midi.h"
   1:../../libdaisy//src/hid/midi.h **** #pragma once
   2:../../libdaisy//src/hid/midi.h **** #ifndef DSY_MIDI_H
   3:../../libdaisy//src/hid/midi.h **** #define DSY_MIDI_H
   4:../../libdaisy//src/hid/midi.h **** 
   5:../../libdaisy//src/hid/midi.h **** // TODO: make this adjustable
   6:../../libdaisy//src/hid/midi.h **** #define SYSEX_BUFFER_LEN 128
   7:../../libdaisy//src/hid/midi.h **** 
   8:../../libdaisy//src/hid/midi.h **** #include <stdint.h>
   9:../../libdaisy//src/hid/midi.h **** #include <stdlib.h>
  10:../../libdaisy//src/hid/midi.h **** #include "per/uart.h"
  11:../../libdaisy//src/hid/midi.h **** #include "util/ringbuffer.h"
  12:../../libdaisy//src/hid/midi.h **** #include "hid/MidiEvent.h"
  13:../../libdaisy//src/hid/midi.h **** #include "hid/usb_midi.h"
  14:../../libdaisy//src/hid/midi.h **** #include "sys/system.h"
  15:../../libdaisy//src/hid/midi.h **** 
  16:../../libdaisy//src/hid/midi.h **** namespace daisy
  17:../../libdaisy//src/hid/midi.h **** {
  18:../../libdaisy//src/hid/midi.h **** /** @addtogroup external 
  19:../../libdaisy//src/hid/midi.h ****     @{ 
  20:../../libdaisy//src/hid/midi.h **** */
  21:../../libdaisy//src/hid/midi.h **** 
  22:../../libdaisy//src/hid/midi.h **** class MidiUartTransport
  23:../../libdaisy//src/hid/midi.h **** {
  24:../../libdaisy//src/hid/midi.h ****   public:
  25:../../libdaisy//src/hid/midi.h ****     MidiUartTransport() {}
  26:../../libdaisy//src/hid/midi.h ****     ~MidiUartTransport() {}
  27:../../libdaisy//src/hid/midi.h **** 
  28:../../libdaisy//src/hid/midi.h ****     struct Config
  29:../../libdaisy//src/hid/midi.h ****     {
  30:../../libdaisy//src/hid/midi.h ****         UartHandler::Config::Peripheral periph;
  31:../../libdaisy//src/hid/midi.h ****         dsy_gpio_pin                    rx;
  32:../../libdaisy//src/hid/midi.h ****         dsy_gpio_pin                    tx;
  33:../../libdaisy//src/hid/midi.h **** 
  34:../../libdaisy//src/hid/midi.h ****         Config()
  35:../../libdaisy//src/hid/midi.h ****         {
  36:../../libdaisy//src/hid/midi.h ****             periph = UartHandler::Config::Peripheral::USART_1;
  37:../../libdaisy//src/hid/midi.h ****             rx     = {DSY_GPIOB, 7};
  38:../../libdaisy//src/hid/midi.h ****             tx     = {DSY_GPIOB, 6};
  39:../../libdaisy//src/hid/midi.h ****         }
  40:../../libdaisy//src/hid/midi.h ****     };
  41:../../libdaisy//src/hid/midi.h **** 
  42:../../libdaisy//src/hid/midi.h ****     inline void Init(Config config)
  43:../../libdaisy//src/hid/midi.h ****     {
  44:../../libdaisy//src/hid/midi.h ****         UartHandler::Config uart_config;
  45:../../libdaisy//src/hid/midi.h **** 
  46:../../libdaisy//src/hid/midi.h ****         //defaults
  47:../../libdaisy//src/hid/midi.h ****         uart_config.baudrate   = 31250;
  48:../../libdaisy//src/hid/midi.h ****         uart_config.stopbits   = UartHandler::Config::StopBits::BITS_1;
  49:../../libdaisy//src/hid/midi.h ****         uart_config.parity     = UartHandler::Config::Parity::NONE;
  50:../../libdaisy//src/hid/midi.h ****         uart_config.mode       = UartHandler::Config::Mode::TX_RX;
  51:../../libdaisy//src/hid/midi.h ****         uart_config.wordlength = UartHandler::Config::WordLength::BITS_8;
  52:../../libdaisy//src/hid/midi.h **** 
  53:../../libdaisy//src/hid/midi.h ****         //user settings
  54:../../libdaisy//src/hid/midi.h ****         uart_config.periph        = config.periph;
ARM GAS  /var/folders/wr/bk9txnv930v5t7d_4s42nmkm0000gq/T//ccJtZ1lc.s 			page 45


  55:../../libdaisy//src/hid/midi.h ****         uart_config.pin_config.rx = config.rx;
  56:../../libdaisy//src/hid/midi.h ****         uart_config.pin_config.tx = config.tx;
  57:../../libdaisy//src/hid/midi.h **** 
  58:../../libdaisy//src/hid/midi.h ****         uart_.Init(uart_config);
  59:../../libdaisy//src/hid/midi.h ****     }
  60:../../libdaisy//src/hid/midi.h **** 
  61:../../libdaisy//src/hid/midi.h ****     inline void    StartRx() { uart_.StartRx(); }
  62:../../libdaisy//src/hid/midi.h ****     inline size_t  Readable() { return uart_.Readable(); }
  63:../../libdaisy//src/hid/midi.h ****     inline uint8_t Rx() { return uart_.PopRx(); }
  64:../../libdaisy//src/hid/midi.h ****     inline bool    RxActive() { return uart_.RxActive(); }
  65:../../libdaisy//src/hid/midi.h ****     inline void    FlushRx() { uart_.FlushRx(); }
  66:../../libdaisy//src/hid/midi.h ****     inline void    Tx(uint8_t* buff, size_t size) { uart_.PollTx(buff, size); }
  67:../../libdaisy//src/hid/midi.h **** 
  68:../../libdaisy//src/hid/midi.h ****   private:
  69:../../libdaisy//src/hid/midi.h ****     UartHandler uart_;
  70:../../libdaisy//src/hid/midi.h **** };
  71:../../libdaisy//src/hid/midi.h **** 
  72:../../libdaisy//src/hid/midi.h **** /** 
  73:../../libdaisy//src/hid/midi.h ****     @brief Simple MIDI Handler \n 
  74:../../libdaisy//src/hid/midi.h ****     Parses bytes from an input into valid MidiEvents. \n 
  75:../../libdaisy//src/hid/midi.h ****     The MidiEvents fill a FIFO queue that the user can pop messages from.
  76:../../libdaisy//src/hid/midi.h ****     @author shensley
  77:../../libdaisy//src/hid/midi.h ****     @date March 2020
  78:../../libdaisy//src/hid/midi.h **** */
  79:../../libdaisy//src/hid/midi.h **** template <typename Transport>
  80:../../libdaisy//src/hid/midi.h **** class MidiHandler
  81:../../libdaisy//src/hid/midi.h **** {
  82:../../libdaisy//src/hid/midi.h ****   public:
  83:../../libdaisy//src/hid/midi.h ****     MidiHandler() {}
  84:../../libdaisy//src/hid/midi.h ****     ~MidiHandler() {}
 514              		.loc 22 84 5 is_stmt 1 view -0
 515              		.cfi_startproc
 516              		@ args = 0, pretend = 0, frame = 0
 517              		@ frame_needed = 0, uses_anonymous_args = 0
 518              		@ link register save eliminated.
 519              	.LBB1772:
 520              	.LBI1772:
 521              		.file 23 "../../libdaisy//src/hid/usb_midi.h"
   1:../../libdaisy//src/hid/usb_midi.h **** #pragma once
   2:../../libdaisy//src/hid/usb_midi.h **** #ifndef __DSY_MIDIUSBTRANSPORT_H__
   3:../../libdaisy//src/hid/usb_midi.h **** #define __DSY_MIDIUSBTRANSPORT_H__
   4:../../libdaisy//src/hid/usb_midi.h **** 
   5:../../libdaisy//src/hid/usb_midi.h **** #include "hid/usb.h"
   6:../../libdaisy//src/hid/usb_midi.h **** #include "sys/system.h"
   7:../../libdaisy//src/hid/usb_midi.h **** #include "util/ringbuffer.h"
   8:../../libdaisy//src/hid/usb_midi.h **** 
   9:../../libdaisy//src/hid/usb_midi.h **** namespace daisy
  10:../../libdaisy//src/hid/usb_midi.h **** {
  11:../../libdaisy//src/hid/usb_midi.h **** class MidiUsbTransport
  12:../../libdaisy//src/hid/usb_midi.h **** {
  13:../../libdaisy//src/hid/usb_midi.h ****   public:
  14:../../libdaisy//src/hid/usb_midi.h ****     // MidiUsbTransport() {}
  15:../../libdaisy//src/hid/usb_midi.h ****     ~MidiUsbTransport() {}
 522              		.loc 23 15 5 view .LVU63
 523              		.loc 23 15 5 is_stmt 0 view .LVU64
 524              	.LBE1772:
 525              		.loc 22 84 21 view .LVU65
ARM GAS  /var/folders/wr/bk9txnv930v5t7d_4s42nmkm0000gq/T//ccJtZ1lc.s 			page 46


 526 0000 7047     		bx	lr
 527              		.cfi_endproc
 528              	.LFE5011:
 530              		.weak	_ZN5daisy11MidiHandlerINS_16MidiUsbTransportEED1Ev
 531              		.thumb_set _ZN5daisy11MidiHandlerINS_16MidiUsbTransportEED1Ev,_ZN5daisy11MidiHandlerINS_16MidiUsbT
 532 0002 00BF     		.section	.text._ZN12VoiceManagerILj16EED2Ev,"axG",%progbits,_ZN12VoiceManagerILj16EED5Ev,comdat
 533              		.align	1
 534              		.p2align 2,,3
 535              		.weak	_ZN12VoiceManagerILj16EED2Ev
 536              		.syntax unified
 537              		.thumb
 538              		.thumb_func
 539              		.fpu fpv5-d16
 541              	_ZN12VoiceManagerILj16EED2Ev:
 542              	.LVL22:
 543              	.LFB5014:
 544              		.file 24 "semester_project.cpp"
   1:semester_project.cpp **** #include <cmath>
   2:semester_project.cpp **** #include "daisy_seed.h"
   3:semester_project.cpp **** #include "daisysp.h"
   4:semester_project.cpp **** #include "dev/bela_trill.h"
   5:semester_project.cpp **** #include "dev/oled_ssd130x.h"
   6:semester_project.cpp **** 
   7:semester_project.cpp **** #define PIN_MUX_SEL_2 19
   8:semester_project.cpp **** #define PIN_MUX_SEL_1 20
   9:semester_project.cpp **** #define PIN_MUX_SEL_0 21
  10:semester_project.cpp **** #define PIN_ADC_POT_MUX 16
  11:semester_project.cpp **** #define PIN_ADC_POT_MUX2 15
  12:semester_project.cpp **** #define PIN_Z 22
  13:semester_project.cpp **** 
  14:semester_project.cpp **** #define PIN_OLED_DC 9
  15:semester_project.cpp **** #define PIN_OLED_RESET 30
  16:semester_project.cpp **** 
  17:semester_project.cpp **** #define PIN_ENC_A 1
  18:semester_project.cpp **** #define PIN_ENC_B 2
  19:semester_project.cpp **** #define PIN_ENC_CLICK 3
  20:semester_project.cpp **** 
  21:semester_project.cpp **** #define ADC_CHANNELS 4
  22:semester_project.cpp **** 
  23:semester_project.cpp **** using namespace daisy;
  24:semester_project.cpp **** using namespace daisysp;
  25:semester_project.cpp **** 
  26:semester_project.cpp **** DaisySeed               hw;
  27:semester_project.cpp **** 
  28:semester_project.cpp **** daisy::UI ui;
  29:semester_project.cpp **** UiEventQueue    eventQueue;
  30:semester_project.cpp **** UI::SpecialControlIds specialControlIds;
  31:semester_project.cpp **** UiCanvasDescriptor oledDisplayDescriptor;
  32:semester_project.cpp **** 
  33:semester_project.cpp **** Trill touchSensor;
  34:semester_project.cpp **** bool gate;
  35:semester_project.cpp **** bool sustainNote;
  36:semester_project.cpp **** //bool syncOnOff;
  37:semester_project.cpp **** Switch panicButton, backButton, functionButton;
  38:semester_project.cpp **** MidiUsbHandler midi;
  39:semester_project.cpp **** 
  40:semester_project.cpp **** OledDisplay<SSD130x4WireSpi128x64Driver> display;
ARM GAS  /var/folders/wr/bk9txnv930v5t7d_4s42nmkm0000gq/T//ccJtZ1lc.s 			page 47


  41:semester_project.cpp **** FullScreenItemMenu mainMenu;
  42:semester_project.cpp **** FullScreenItemMenu lfoMenu;
  43:semester_project.cpp **** FullScreenItemMenu lfoMapMenu;
  44:semester_project.cpp **** FullScreenItemMenu controlMapMenu;
  45:semester_project.cpp **** FullScreenItemMenu paramLimitMenu;
  46:semester_project.cpp **** FullScreenItemMenu pitchEnvMenu;
  47:semester_project.cpp **** FullScreenItemMenu xMapMenu;
  48:semester_project.cpp **** FullScreenItemMenu yMapMenu;
  49:semester_project.cpp **** FullScreenItemMenu zMapMenu;
  50:semester_project.cpp **** FullScreenItemMenu fxMenu;
  51:semester_project.cpp **** FullScreenItemMenu reverbMenu;
  52:semester_project.cpp **** FullScreenItemMenu chorusMenu;
  53:semester_project.cpp **** FullScreenItemMenu overdriveMenu;
  54:semester_project.cpp **** 
  55:semester_project.cpp **** const int                kNumMainMenuItems = 6;
  56:semester_project.cpp **** AbstractMenu::ItemConfig mainMenuItems[kNumMainMenuItems];
  57:semester_project.cpp **** const int                kNumLfoMenuItems = 3;
  58:semester_project.cpp **** AbstractMenu::ItemConfig lfoMenuItems[kNumLfoMenuItems];
  59:semester_project.cpp **** const int                kNumLfoMapMenuItems = 7;
  60:semester_project.cpp **** AbstractMenu::ItemConfig lfoMapMenuItems[kNumLfoMapMenuItems];
  61:semester_project.cpp **** const int                kNumControlMapMenuItems = 4;
  62:semester_project.cpp **** AbstractMenu::ItemConfig controlMapMenuItems[kNumControlMapMenuItems];
  63:semester_project.cpp **** const int                kNumParamLimitMenuItems = 9;
  64:semester_project.cpp **** AbstractMenu::ItemConfig paramLimitMenuItems[kNumParamLimitMenuItems];
  65:semester_project.cpp **** 
  66:semester_project.cpp **** const int                kNumPitchEnvMenuItems = 6;
  67:semester_project.cpp **** AbstractMenu::ItemConfig pitchEnvMenuItems[kNumPitchEnvMenuItems];
  68:semester_project.cpp **** 
  69:semester_project.cpp **** const int                kNumXMapMenuItems = 15;
  70:semester_project.cpp **** AbstractMenu::ItemConfig xMapMenuItems[kNumXMapMenuItems];
  71:semester_project.cpp **** const int                kNumYMapMenuItems = 15;
  72:semester_project.cpp **** AbstractMenu::ItemConfig yMapMenuItems[kNumYMapMenuItems];
  73:semester_project.cpp **** const int                kNumZMapMenuItems = 15;
  74:semester_project.cpp **** AbstractMenu::ItemConfig zMapMenuItems[kNumZMapMenuItems];
  75:semester_project.cpp **** const int                kNumFxMenuItems = 4;
  76:semester_project.cpp **** AbstractMenu::ItemConfig fxMenuItems[kNumFxMenuItems];
  77:semester_project.cpp **** const int                kNumReverbMenuItems = 4;
  78:semester_project.cpp **** AbstractMenu::ItemConfig reverbMenuItems[kNumReverbMenuItems];
  79:semester_project.cpp **** const int                kNumChorusMenuItems = 6;
  80:semester_project.cpp **** AbstractMenu::ItemConfig chorusMenuItems[kNumChorusMenuItems];
  81:semester_project.cpp **** const int                kNumOverdriveMenuItems = 3;
  82:semester_project.cpp **** AbstractMenu::ItemConfig overdriveMenuItems[kNumOverdriveMenuItems];
  83:semester_project.cpp **** 
  84:semester_project.cpp **** Encoder         encoder; 
  85:semester_project.cpp **** 
  86:semester_project.cpp **** float lfoFreq, lfoAmp, mod;
  87:semester_project.cpp **** float ampAttack, ampDecay, ampSustain, ampRelease, amp;
  88:semester_project.cpp **** float filterFreq, filterRes, filterAttack, filterDecay, filterSustain, filterRelease, filterEnvAmou
  89:semester_project.cpp **** float waveshape, syncFreq, PW;
  90:semester_project.cpp **** float freq, velocity;
  91:semester_project.cpp **** float pitchEnv, pitchXYZ;
  92:semester_project.cpp **** float vol;
  93:semester_project.cpp **** 
  94:semester_project.cpp **** MappedFloatValue freqLowerLimit(50.f, 20000.f, 200.f, MappedFloatValue::Mapping::log, "Hz" ,0, fals
  95:semester_project.cpp **** MappedFloatValue freqUpperLimit(50.f, 20000.f, 20000.f, MappedFloatValue::Mapping::log, "Hz" ,0, fa
  96:semester_project.cpp **** MappedFloatValue lfoFreqLowerLimit(0.05f, 50.f, 0.1f, MappedFloatValue::Mapping::pow2, "Hz" , 2 ,fa
  97:semester_project.cpp **** MappedFloatValue lfoFreqUpperLimit(0.05f, 50.f, 50.f, MappedFloatValue::Mapping::pow2, "Hz" , 2 ,fa
ARM GAS  /var/folders/wr/bk9txnv930v5t7d_4s42nmkm0000gq/T//ccJtZ1lc.s 			page 48


  98:semester_project.cpp **** MappedFloatValue pitchLowerLimit(-24.f, 24.f, 0.f, MappedFloatValue::Mapping::lin, "st", 1, false);
  99:semester_project.cpp **** MappedFloatValue pitchUpperLimit(-24.f, 24.f, 12.f, MappedFloatValue::Mapping::lin, "st", 1, false)
 100:semester_project.cpp **** bool invFreqLimit;
 101:semester_project.cpp **** bool invLfoFreqLimit;
 102:semester_project.cpp **** 
 103:semester_project.cpp **** 
 104:semester_project.cpp **** MappedFloatValue reverbDryWet(0.0f, 100.0f, 35.f, MappedFloatValue::Mapping::lin, "%" ,0, false);
 105:semester_project.cpp **** MappedFloatValue reverbFeedback(0.0f, 100.0f, 20.f, MappedFloatValue::Mapping::lin, "%" ,0, false);
 106:semester_project.cpp **** MappedFloatValue reverbLp(500.f, 20000.f, 20000.f, MappedFloatValue::Mapping::log, "Hz" ,0, false);
 107:semester_project.cpp **** 
 108:semester_project.cpp **** MappedFloatValue chorusDryWet(0.0f, 100.0f, 20.f, MappedFloatValue::Mapping::lin, "%" ,0, false);
 109:semester_project.cpp **** MappedFloatValue chorusLfoDepth(0.0f, 1.0f, 0.2f, MappedFloatValue::Mapping::lin, "", 2, false);
 110:semester_project.cpp **** MappedFloatValue chorusLfoFreq(0.1f, 15.f, 1.f, MappedFloatValue::Mapping::lin, "Hz", 1, false);
 111:semester_project.cpp **** MappedFloatValue chorusDelayMs(0.0f, 50.f, 0.5f, MappedFloatValue::Mapping::pow2, "ms", 1, false);
 112:semester_project.cpp **** MappedFloatValue chorusFeedback(0.0f, 100.0f, 20.f, MappedFloatValue::Mapping::lin, "%" ,0, false);
 113:semester_project.cpp **** 
 114:semester_project.cpp **** MappedFloatValue pitchAttack(0.f, 5.f, 0.0f, MappedFloatValue::Mapping::pow2, "s", 2, false);
 115:semester_project.cpp **** MappedFloatValue pitchDecay(0.f, 5.f, 0.2f, MappedFloatValue::Mapping::pow2, "s", 2, false);
 116:semester_project.cpp **** MappedFloatValue pitchSustain(0.f, 1.f, 0.0f, MappedFloatValue::Mapping::lin, " ", 2, false);
 117:semester_project.cpp **** MappedFloatValue pitchRelease(0.f, 2.f, 0.0f, MappedFloatValue::Mapping::pow2, "s", 2, false);
 118:semester_project.cpp **** MappedFloatValue pitchEnvAmount(-24.f, 24.f, 0.f, MappedFloatValue::Mapping::lin, "st", 1, false);
 119:semester_project.cpp **** 
 120:semester_project.cpp **** MappedFloatValue overdriveDryWet(0.0f, 100.0f, 20.f, MappedFloatValue::Mapping::lin, "%" ,0, false)
 121:semester_project.cpp **** MappedFloatValue overdriveDrive(0.f, 100.0f, 0.f, MappedFloatValue::Mapping::lin, "%", 0, false);
 122:semester_project.cpp **** 
 123:semester_project.cpp **** MappedFloatValue masterVolume(0.0f, 100.f, 50.f, MappedFloatValue::Mapping::lin, "%", 0, false);
 124:semester_project.cpp **** 
 125:semester_project.cpp **** const char* lfoShapeValues[]
 126:semester_project.cpp ****     = {"Sine", "Tri", "Saw", "Ramp", "Square"};
 127:semester_project.cpp **** MappedStringListValue lfoShapeValue(lfoShapeValues, 5, 0);
 128:semester_project.cpp **** bool lfoMapCutoff;
 129:semester_project.cpp **** bool lfoMapPW;
 130:semester_project.cpp **** bool lfoMapSync;
 131:semester_project.cpp **** bool lfoMapShape;
 132:semester_project.cpp **** bool lfoMapAmp;
 133:semester_project.cpp **** bool lfoMapPitch;
 134:semester_project.cpp **** 
 135:semester_project.cpp **** bool xMapCutoff, yMapCutoff, zMapCutoff;
 136:semester_project.cpp **** bool xMapPW, yMapPW, zMapPW;
 137:semester_project.cpp **** bool xMapSync, yMapSync, zMapSync;
 138:semester_project.cpp **** bool xMapShape, yMapShape, zMapShape;
 139:semester_project.cpp **** bool xMapLfoRate, yMapLfoRate, zMapLfoRate;
 140:semester_project.cpp **** bool xMapLfoAmount, yMapLfoAmount, zMapLfoAmount;
 141:semester_project.cpp **** bool xMapAmp, yMapAmp, zMapAmp;
 142:semester_project.cpp **** bool xMapFltRes, yMapFltRes, zMapFltRes;
 143:semester_project.cpp **** bool xMapFltAttack, yMapFltAttack, zMapFltAttack;
 144:semester_project.cpp **** bool xMapFltDecay, yMapFltDecay, zMapFltDecay;
 145:semester_project.cpp **** bool xMapFltEnv, yMapFltEnv, zMapFltEnv;
 146:semester_project.cpp **** bool xMapPitch, yMapPitch, zMapPitch;
 147:semester_project.cpp **** bool xMapRevFeedback, yMapRevFeedback, zMapRevFeedback;
 148:semester_project.cpp **** bool xMapRevDryWet, yMapRevDryWet, zMapRevDryWet;
 149:semester_project.cpp **** bool xMapOverdrive, yMapOverdrive, zMapOverdrive;
 150:semester_project.cpp **** 
 151:semester_project.cpp **** // Horizontal and vertical position for Trill sensor
 152:semester_project.cpp **** float gTouchPosition[2] = { 0.0 , 0.0 };
 153:semester_project.cpp **** // Touch size
 154:semester_project.cpp **** float gTouchSize = 0.0;
ARM GAS  /var/folders/wr/bk9txnv930v5t7d_4s42nmkm0000gq/T//ccJtZ1lc.s 			page 49


 155:semester_project.cpp **** 
 156:semester_project.cpp **** float xPos, yPos;
 157:semester_project.cpp **** 
 158:semester_project.cpp **** float sigScope;
 159:semester_project.cpp **** 
 160:semester_project.cpp **** static MoogLadder flt;
 161:semester_project.cpp **** static Oscillator lfo;
 162:semester_project.cpp **** static ReverbSc  rev;
 163:semester_project.cpp **** static Chorus chorus;
 164:semester_project.cpp **** static Overdrive od;
 165:semester_project.cpp **** 
 166:semester_project.cpp **** 
 167:semester_project.cpp **** uint8_t lfowWaveforms[5] = {
 168:semester_project.cpp ****     Oscillator::WAVE_SIN,
 169:semester_project.cpp ****     Oscillator::WAVE_TRI,
 170:semester_project.cpp ****     Oscillator::WAVE_SAW,
 171:semester_project.cpp ****     Oscillator::WAVE_RAMP,
 172:semester_project.cpp ****     Oscillator::WAVE_SQUARE,
 173:semester_project.cpp **** };
 174:semester_project.cpp **** 
 175:semester_project.cpp **** class Voice
 176:semester_project.cpp **** {
 177:semester_project.cpp ****   public:
 178:semester_project.cpp ****     Voice() {}
 179:semester_project.cpp ****     ~Voice() {}
 180:semester_project.cpp ****     void Init(float samplerate)
 181:semester_project.cpp ****     {
 182:semester_project.cpp ****         active_ = false;
 183:semester_project.cpp ****         variosc.Init(samplerate);
 184:semester_project.cpp ****         adsr.Init(samplerate);
 185:semester_project.cpp **** 	    fltAdsr.Init(samplerate);
 186:semester_project.cpp ****         pitchAdsr.Init(samplerate);
 187:semester_project.cpp ****     }
 188:semester_project.cpp **** 
 189:semester_project.cpp ****     void UpdateEnvelopes()
 190:semester_project.cpp ****     {
 191:semester_project.cpp ****         adsr.SetTime(ADSR_SEG_ATTACK, ampAttack);
 192:semester_project.cpp ****         adsr.SetTime(ADSR_SEG_DECAY , ampDecay);
 193:semester_project.cpp ****         adsr.SetSustainLevel(ampSustain);
 194:semester_project.cpp ****         adsr.SetTime(ADSR_SEG_RELEASE, ampRelease);
 195:semester_project.cpp **** 
 196:semester_project.cpp ****         //Update pitch envelope parameters
 197:semester_project.cpp ****         pitchAdsr.SetTime(ADSR_SEG_ATTACK, pitchAttack);
 198:semester_project.cpp ****         pitchAdsr.SetTime(ADSR_SEG_DECAY, pitchDecay);
 199:semester_project.cpp ****         pitchAdsr.SetSustainLevel(pitchSustain);
 200:semester_project.cpp ****         pitchAdsr.SetTime(ADSR_SEG_RELEASE, pitchRelease);
 201:semester_project.cpp **** 
 202:semester_project.cpp ****         //Update filter envelope parameters
 203:semester_project.cpp ****         fltAdsr.SetTime(ADSR_SEG_ATTACK, filterAttack);
 204:semester_project.cpp ****         fltAdsr.SetTime(ADSR_SEG_DECAY, filterDecay);
 205:semester_project.cpp ****         fltAdsr.SetSustainLevel(filterSustain);
 206:semester_project.cpp ****         fltAdsr.SetTime(ADSR_SEG_RELEASE, filterRelease);
 207:semester_project.cpp ****     }
 208:semester_project.cpp **** 
 209:semester_project.cpp ****     float Process()
 210:semester_project.cpp ****     {
 211:semester_project.cpp ****         if(active_)
ARM GAS  /var/folders/wr/bk9txnv930v5t7d_4s42nmkm0000gq/T//ccJtZ1lc.s 			page 50


 212:semester_project.cpp ****         {
 213:semester_project.cpp ****             float sig, pitchMod;
 214:semester_project.cpp **** 			amp = adsr.Process(env_gate_);
 215:semester_project.cpp ****             fltEnv = fltAdsr.Process(env_gate_);
 216:semester_project.cpp ****             pitchEnv = pitchAdsr.Process(env_gate_);
 217:semester_project.cpp **** 
 218:semester_project.cpp ****             //handle pitch modulation sources
 219:semester_project.cpp ****             if (lfoMapPitch == true){
 220:semester_project.cpp ****             pitchMod = mod + pitchXYZ + (pitchEnv*pitchEnvAmount);
 221:semester_project.cpp ****             variosc.SetFreq(mtof(note_ + pitchMod));
 222:semester_project.cpp ****             }
 223:semester_project.cpp ****             else if(pitchXYZ != 0 || pitchEnvAmount != 0){
 224:semester_project.cpp ****                 pitchMod = pitchXYZ + (pitchEnv*pitchEnvAmount);
 225:semester_project.cpp ****                 variosc.SetFreq(mtof(note_ + pitchMod));
 226:semester_project.cpp ****             }
 227:semester_project.cpp ****             
 228:semester_project.cpp ****             
 229:semester_project.cpp **** 			if(!adsr.IsRunning())
 230:semester_project.cpp ****                 active_ = false;
 231:semester_project.cpp ****             sig = variosc.Process();
 232:semester_project.cpp ****             return (sig * (velocity_ / 127.f) * amp);
 233:semester_project.cpp ****         }
 234:semester_project.cpp ****         return 0.f;
 235:semester_project.cpp ****     }
 236:semester_project.cpp **** 
 237:semester_project.cpp ****     void OnNoteOn(float note, float velocity)
 238:semester_project.cpp ****     {
 239:semester_project.cpp ****         note_     = note;
 240:semester_project.cpp ****         velocity_ = velocity;
 241:semester_project.cpp ****         variosc.SetFreq(mtof(note_));
 242:semester_project.cpp ****         UpdateEnvelopes();
 243:semester_project.cpp ****         active_   = true;
 244:semester_project.cpp ****         env_gate_ = true;
 245:semester_project.cpp ****     }
 246:semester_project.cpp **** 
 247:semester_project.cpp ****     void OnNoteOff() {env_gate_ = false;}
 248:semester_project.cpp **** 
 249:semester_project.cpp ****     void SetSyncFreq(float val) { variosc.SetSyncFreq(val); }
 250:semester_project.cpp ****     void SetPW(float val) { variosc.SetPW(val); }
 251:semester_project.cpp ****     void SetSync(bool val) { variosc.SetSync(val); }
 252:semester_project.cpp ****     void SetWaveshape(float val) { variosc.SetWaveshape(val); }
 253:semester_project.cpp ****  
 254:semester_project.cpp ****     
 255:semester_project.cpp ****     void SetFilterCutoff(float val) { flt.SetFreq(val); }
 256:semester_project.cpp ****     void SetFilterRes(float val) { flt.SetRes(val); }
 257:semester_project.cpp **** 
 258:semester_project.cpp ****     inline bool  IsActive() const { return active_; }
 259:semester_project.cpp ****     inline float GetNote() const { return note_; }
 260:semester_project.cpp **** 
 261:semester_project.cpp ****   private:
 262:semester_project.cpp ****     VariableShapeOscillator variosc;
 263:semester_project.cpp ****     Adsr       pitchAdsr, fltAdsr, adsr;
 264:semester_project.cpp ****     float      note_, velocity_;
 265:semester_project.cpp ****     bool       active_;
 266:semester_project.cpp **** 	bool 	   env_gate_;
 267:semester_project.cpp **** };
 268:semester_project.cpp **** 
ARM GAS  /var/folders/wr/bk9txnv930v5t7d_4s42nmkm0000gq/T//ccJtZ1lc.s 			page 51


 269:semester_project.cpp **** 
 270:semester_project.cpp **** template <size_t max_voices>
 271:semester_project.cpp **** class VoiceManager
 272:semester_project.cpp **** {
 273:semester_project.cpp ****   public:
 274:semester_project.cpp ****     VoiceManager() {}
 275:semester_project.cpp ****     ~VoiceManager() {}
 545              		.loc 24 275 5 is_stmt 1 view -0
 546              		.cfi_startproc
 547              		@ args = 0, pretend = 0, frame = 0
 548              		@ frame_needed = 0, uses_anonymous_args = 0
 549              		@ link register save eliminated.
 550              		.loc 24 275 22 is_stmt 0 view .LVU67
 551 0000 7047     		bx	lr
 552              		.cfi_endproc
 553              	.LFE5014:
 555              		.weak	_ZN12VoiceManagerILj16EED1Ev
 556              		.thumb_set _ZN12VoiceManagerILj16EED1Ev,_ZN12VoiceManagerILj16EED2Ev
 557 0002 00BF     		.section	.text._ZN5daisy11OledDisplayINS_13SSD130xDriverILj128ELj64ENS_24SSD130x4WireSpiTransportE
 558              		.align	1
 559              		.p2align 2,,3
 560              		.weak	_ZN5daisy11OledDisplayINS_13SSD130xDriverILj128ELj64ENS_24SSD130x4WireSpiTransportEEEED0Ev
 561              		.syntax unified
 562              		.thumb
 563              		.thumb_func
 564              		.fpu fpv5-d16
 566              	_ZN5daisy11OledDisplayINS_13SSD130xDriverILj128ELj64ENS_24SSD130x4WireSpiTransportEEEED0Ev:
 567              	.LVL23:
 568              	.LFB5000:
  17:../../libdaisy//src/hid/disp/oled_display.h **** 
 569              		.loc 16 17 13 is_stmt 1 view -0
 570              		.cfi_startproc
 571              		@ args = 0, pretend = 0, frame = 0
 572              		@ frame_needed = 0, uses_anonymous_args = 0
  17:../../libdaisy//src/hid/disp/oled_display.h **** 
 573              		.loc 16 17 13 is_stmt 0 view .LVU69
 574 0000 10B5     		push	{r4, lr}
 575              		.cfi_def_cfa_offset 8
 576              		.cfi_offset 4, -8
 577              		.cfi_offset 14, -4
  17:../../libdaisy//src/hid/disp/oled_display.h **** 
 578              		.loc 16 17 13 view .LVU70
 579 0002 0446     		mov	r4, r0
 580              	.LVL24:
 581              	.LBB1773:
 582              	.LBI1773:
  17:../../libdaisy//src/hid/disp/oled_display.h **** 
 583              		.loc 16 17 13 is_stmt 1 view .LVU71
 584              	.LBB1774:
 585              	.LBI1774:
 586              		.loc 21 219 13 view .LVU72
 587              	.LBB1775:
 588              	.LBI1775:
  23:../../libdaisy//src/hid/disp/display.h **** 
 589              		.loc 21 23 13 view .LVU73
  23:../../libdaisy//src/hid/disp/display.h **** 
 590              		.loc 21 23 13 is_stmt 0 view .LVU74
ARM GAS  /var/folders/wr/bk9txnv930v5t7d_4s42nmkm0000gq/T//ccJtZ1lc.s 			page 52


 591              	.LBE1775:
 592              	.LBE1774:
 593              	.LBE1773:
  17:../../libdaisy//src/hid/disp/oled_display.h **** 
 594              		.loc 16 17 29 view .LVU75
 595 0004 40F21441 		movw	r1, #1044
 596 0008 FFF7FEFF 		bl	_ZdlPvj
 597              	.LVL25:
  17:../../libdaisy//src/hid/disp/oled_display.h **** 
 598              		.loc 16 17 29 view .LVU76
 599 000c 2046     		mov	r0, r4
 600 000e 10BD     		pop	{r4, pc}
  17:../../libdaisy//src/hid/disp/oled_display.h **** 
 601              		.loc 16 17 29 view .LVU77
 602              		.cfi_endproc
 603              	.LFE5000:
 605              		.section	.text._Z11ClearCanvasRKN5daisy18UiCanvasDescriptorE,"ax",%progbits
 606              		.align	1
 607              		.p2align 2,,3
 608              		.global	_Z11ClearCanvasRKN5daisy18UiCanvasDescriptorE
 609              		.syntax unified
 610              		.thumb
 611              		.thumb_func
 612              		.fpu fpv5-d16
 614              	_Z11ClearCanvasRKN5daisy18UiCanvasDescriptorE:
 615              	.LVL26:
 616              	.LFB4373:
 276:semester_project.cpp **** 
 277:semester_project.cpp ****     void Init(float samplerate)
 278:semester_project.cpp ****     {
 279:semester_project.cpp ****         for(size_t i = 0; i < max_voices; i++)
 280:semester_project.cpp ****         {
 281:semester_project.cpp ****             voices[i].Init(samplerate);
 282:semester_project.cpp ****         }
 283:semester_project.cpp ****     }
 284:semester_project.cpp **** 
 285:semester_project.cpp ****     float Process()
 286:semester_project.cpp ****     {
 287:semester_project.cpp ****         float sum;
 288:semester_project.cpp ****         sum = 0.f;
 289:semester_project.cpp ****         for(size_t i = 0; i < max_voices; i++)
 290:semester_project.cpp ****         {
 291:semester_project.cpp ****             sum += voices[i].Process();
 292:semester_project.cpp ****         }
 293:semester_project.cpp ****         return sum;
 294:semester_project.cpp ****     }
 295:semester_project.cpp **** 
 296:semester_project.cpp ****     void OnNoteOn(float notenumber, float velocity)
 297:semester_project.cpp ****     {
 298:semester_project.cpp ****         Voice *v = FindFreeVoice();
 299:semester_project.cpp ****         if(v == NULL)
 300:semester_project.cpp ****             return;
 301:semester_project.cpp ****         v->OnNoteOn(notenumber, velocity);
 302:semester_project.cpp ****     }
 303:semester_project.cpp **** 
 304:semester_project.cpp ****     void OnNoteOff(float notenumber, float velocity)
 305:semester_project.cpp ****     {   if(sustainNote == false){
ARM GAS  /var/folders/wr/bk9txnv930v5t7d_4s42nmkm0000gq/T//ccJtZ1lc.s 			page 53


 306:semester_project.cpp ****             for(size_t i = 0; i < max_voices; i++)
 307:semester_project.cpp ****             {
 308:semester_project.cpp ****                 Voice *v = &voices[i];
 309:semester_project.cpp ****                 if(v->IsActive() && v->GetNote() == notenumber)
 310:semester_project.cpp ****                 {
 311:semester_project.cpp ****                     v->OnNoteOff();
 312:semester_project.cpp ****                 }
 313:semester_project.cpp ****             }}
 314:semester_project.cpp ****         else{}
 315:semester_project.cpp ****     }
 316:semester_project.cpp **** 
 317:semester_project.cpp ****     void FreeAllVoices()
 318:semester_project.cpp ****     {
 319:semester_project.cpp ****         for(size_t i = 0; i < max_voices; i++)
 320:semester_project.cpp ****         {
 321:semester_project.cpp ****             voices[i].OnNoteOff();
 322:semester_project.cpp ****         }
 323:semester_project.cpp ****     }
 324:semester_project.cpp **** 
 325:semester_project.cpp **** 
 326:semester_project.cpp ****     void SetSyncFreq(float all_val)
 327:semester_project.cpp ****     {
 328:semester_project.cpp ****         for(size_t i = 0; i < max_voices; i++)
 329:semester_project.cpp ****         {
 330:semester_project.cpp ****             voices[i].SetSyncFreq(all_val);
 331:semester_project.cpp ****         }
 332:semester_project.cpp ****     }
 333:semester_project.cpp **** 
 334:semester_project.cpp ****     void SetPW(float all_val)
 335:semester_project.cpp ****     {
 336:semester_project.cpp ****         for(size_t i = 0; i < max_voices; i++)
 337:semester_project.cpp ****         {
 338:semester_project.cpp ****             voices[i].SetPW(all_val);
 339:semester_project.cpp ****         }
 340:semester_project.cpp ****     }
 341:semester_project.cpp ****     
 342:semester_project.cpp ****     void SetSync(bool all_val)
 343:semester_project.cpp ****     {
 344:semester_project.cpp ****         for(size_t i = 0; i < max_voices; i++)
 345:semester_project.cpp ****         {
 346:semester_project.cpp ****             voices[i].SetSync(all_val);
 347:semester_project.cpp ****         }
 348:semester_project.cpp ****     }
 349:semester_project.cpp **** 
 350:semester_project.cpp ****     void SetWaveshape(float all_val)
 351:semester_project.cpp ****     {
 352:semester_project.cpp ****         for(size_t i = 0; i < max_voices; i++)
 353:semester_project.cpp ****         {
 354:semester_project.cpp ****             voices[i].SetWaveshape(all_val);
 355:semester_project.cpp ****         }
 356:semester_project.cpp ****     }
 357:semester_project.cpp **** 
 358:semester_project.cpp ****     void SetFilterCutoff(float all_val)
 359:semester_project.cpp ****     {
 360:semester_project.cpp ****         for(size_t i = 0; i < max_voices; i++)
 361:semester_project.cpp ****         {
 362:semester_project.cpp ****             voices[i].SetFilterCutoff(all_val);
ARM GAS  /var/folders/wr/bk9txnv930v5t7d_4s42nmkm0000gq/T//ccJtZ1lc.s 			page 54


 363:semester_project.cpp ****         }
 364:semester_project.cpp ****     }
 365:semester_project.cpp **** 
 366:semester_project.cpp ****     void SetFilterRes(float all_val)
 367:semester_project.cpp ****     {
 368:semester_project.cpp ****         for(size_t i = 0; i < max_voices; i++)
 369:semester_project.cpp ****         {
 370:semester_project.cpp ****             voices[i].SetFilterRes(all_val);
 371:semester_project.cpp ****         }
 372:semester_project.cpp ****     }
 373:semester_project.cpp **** 
 374:semester_project.cpp ****   private:
 375:semester_project.cpp ****     Voice  voices[max_voices];
 376:semester_project.cpp ****     Voice *FindFreeVoice()
 377:semester_project.cpp ****     {
 378:semester_project.cpp ****         Voice *v = NULL;
 379:semester_project.cpp ****         for(size_t i = 0; i < max_voices; i++)
 380:semester_project.cpp ****         {
 381:semester_project.cpp ****             if(!voices[i].IsActive())
 382:semester_project.cpp ****             {
 383:semester_project.cpp ****                 v = &voices[i];
 384:semester_project.cpp ****                 break;
 385:semester_project.cpp ****             }
 386:semester_project.cpp ****         }
 387:semester_project.cpp ****         return v;
 388:semester_project.cpp ****     }
 389:semester_project.cpp **** };
 390:semester_project.cpp **** 
 391:semester_project.cpp **** static VoiceManager<16> voice_handler;
 392:semester_project.cpp **** 
 393:semester_project.cpp **** void UpdateButtons(){
 394:semester_project.cpp ****     //Debounce buttons
 395:semester_project.cpp ****     panicButton.Debounce();
 396:semester_project.cpp ****     functionButton.Debounce();
 397:semester_project.cpp ****     backButton.Debounce();
 398:semester_project.cpp ****     encoder.Debounce();
 399:semester_project.cpp **** 
 400:semester_project.cpp ****     //Update button parameters
 401:semester_project.cpp ****     if(panicButton.RisingEdge() )
 402:semester_project.cpp ****     {
 403:semester_project.cpp ****         voice_handler.FreeAllVoices();
 404:semester_project.cpp ****     }
 405:semester_project.cpp **** 
 406:semester_project.cpp **** }
 407:semester_project.cpp **** 
 408:semester_project.cpp **** void UpdateADC(){
 409:semester_project.cpp **** 
 410:semester_project.cpp ****     //Maped so z goes from 0 to 1
 411:semester_project.cpp ****     float zPos = fmap(hw.adc.GetFloat(0), -0.34f, 1.20f, Mapping::LINEAR);
 412:semester_project.cpp ****     //zPos = zPos *
 413:semester_project.cpp ****     
 414:semester_project.cpp ****     //Update parameters
 415:semester_project.cpp ****     ampAttack = fmap(hw.adc.GetMuxFloat(1,0), 0.f, 5.f, Mapping::EXP);
 416:semester_project.cpp ****     ampDecay = fmap(hw.adc.GetMuxFloat(1,1), 0.f, 5.f, Mapping::EXP);
 417:semester_project.cpp ****     ampSustain = hw.adc.GetMuxFloat(1,2);
 418:semester_project.cpp ****     ampRelease = fmap(hw.adc.GetMuxFloat(1,3), 0.f, 2.f, Mapping::EXP);
 419:semester_project.cpp **** 
ARM GAS  /var/folders/wr/bk9txnv930v5t7d_4s42nmkm0000gq/T//ccJtZ1lc.s 			page 55


 420:semester_project.cpp ****     if (xMapShape == false && yMapShape == false && zMapShape == false){
 421:semester_project.cpp ****         waveshape = hw.adc.GetMuxFloat(1,4);}
 422:semester_project.cpp ****         else if (xMapShape == true)
 423:semester_project.cpp ****         {
 424:semester_project.cpp ****             waveshape = xPos;
 425:semester_project.cpp ****         }
 426:semester_project.cpp ****         else if (yMapShape == true)
 427:semester_project.cpp ****         {
 428:semester_project.cpp ****             waveshape = yPos;
 429:semester_project.cpp ****         }
 430:semester_project.cpp ****         else if (zMapShape == true)
 431:semester_project.cpp ****         {
 432:semester_project.cpp ****             waveshape = zPos;
 433:semester_project.cpp ****         }
 434:semester_project.cpp **** 
 435:semester_project.cpp ****     if (xMapSync == false && yMapSync == false && zMapSync == false){
 436:semester_project.cpp ****         syncFreq = mtof(hw.adc.GetMuxFloat(1,5) * 127);}
 437:semester_project.cpp ****         else if (xMapSync == true)
 438:semester_project.cpp ****         {
 439:semester_project.cpp ****             syncFreq = mtof(xPos * 127);
 440:semester_project.cpp ****         }
 441:semester_project.cpp ****         else if (yMapSync == true)
 442:semester_project.cpp ****         {
 443:semester_project.cpp ****             syncFreq = mtof(yPos * 127);
 444:semester_project.cpp ****         }
 445:semester_project.cpp ****         else if (zMapSync == true)
 446:semester_project.cpp ****         {
 447:semester_project.cpp ****             syncFreq = mtof(zPos * 127);
 448:semester_project.cpp ****         }
 449:semester_project.cpp **** 
 450:semester_project.cpp ****     if (xMapPW == false && yMapPW == false && zMapPW == false){
 451:semester_project.cpp ****         PW = hw.adc.GetMuxFloat(1,6);}
 452:semester_project.cpp ****         else if (xMapPW == true)
 453:semester_project.cpp ****         {
 454:semester_project.cpp ****             PW = xPos;
 455:semester_project.cpp ****         }
 456:semester_project.cpp ****         else if (yMapPW == true)
 457:semester_project.cpp ****         {
 458:semester_project.cpp ****             PW = yPos;
 459:semester_project.cpp ****         }
 460:semester_project.cpp ****         else if (zMapPW == true)
 461:semester_project.cpp ****         {
 462:semester_project.cpp ****             PW = zPos;
 463:semester_project.cpp ****         }
 464:semester_project.cpp **** 
 465:semester_project.cpp ****     if (xMapLfoRate == false && yMapLfoRate == false && zMapLfoRate == false){
 466:semester_project.cpp ****         lfoFreq = fmap(hw.adc.GetMuxFloat(1,7), lfoFreqLowerLimit , lfoFreqUpperLimit, Mapping::EXP
 467:semester_project.cpp ****         else if (xMapLfoRate == true)
 468:semester_project.cpp ****         {
 469:semester_project.cpp ****             lfoFreq = fmap(xPos , lfoFreqLowerLimit, lfoFreqUpperLimit, Mapping::EXP);
 470:semester_project.cpp ****         }
 471:semester_project.cpp ****         else if (yMapLfoRate == true)
 472:semester_project.cpp ****         {
 473:semester_project.cpp ****             lfoFreq = fmap(yPos , lfoFreqLowerLimit, lfoFreqUpperLimit, Mapping::EXP);
 474:semester_project.cpp ****         }
 475:semester_project.cpp ****         else if (zMapLfoRate == true)
 476:semester_project.cpp ****         {
ARM GAS  /var/folders/wr/bk9txnv930v5t7d_4s42nmkm0000gq/T//ccJtZ1lc.s 			page 56


 477:semester_project.cpp ****             lfoFreq = fmap(zPos , lfoFreqLowerLimit, lfoFreqUpperLimit, Mapping::EXP);
 478:semester_project.cpp ****         }
 479:semester_project.cpp **** 
 480:semester_project.cpp ****     if (xMapLfoAmount == false && yMapLfoAmount == false && zMapLfoAmount == false){
 481:semester_project.cpp ****         lfoAmp = hw.adc.GetMuxFloat(2,0);}
 482:semester_project.cpp ****         else if (xMapLfoAmount == true)
 483:semester_project.cpp ****         {
 484:semester_project.cpp ****             lfoAmp = xPos;
 485:semester_project.cpp ****         }
 486:semester_project.cpp ****         else if (yMapLfoAmount == true)
 487:semester_project.cpp ****         {
 488:semester_project.cpp ****             lfoAmp = yPos;
 489:semester_project.cpp ****         }
 490:semester_project.cpp ****         else if (zMapLfoAmount == true)
 491:semester_project.cpp ****         {
 492:semester_project.cpp ****             lfoAmp = zPos;
 493:semester_project.cpp ****         }
 494:semester_project.cpp ****     
 495:semester_project.cpp ****     if (freqUpperLimit > freqLowerLimit || invFreqLimit == false){
 496:semester_project.cpp ****         if (xMapCutoff == false && yMapCutoff == false && zMapCutoff == false){
 497:semester_project.cpp ****             filterFreq = fmap(hw.adc.GetMuxFloat(2,1), freqLowerLimit, freqUpperLimit, Mapping::LOG
 498:semester_project.cpp ****             else if (xMapCutoff == true)
 499:semester_project.cpp ****             {
 500:semester_project.cpp ****                 filterFreq = fmap(xPos, freqLowerLimit, freqUpperLimit, Mapping::LOG);
 501:semester_project.cpp ****             }
 502:semester_project.cpp ****             else if (yMapCutoff == true)
 503:semester_project.cpp ****             {
 504:semester_project.cpp ****                 filterFreq = fmap(yPos, freqLowerLimit, freqUpperLimit, Mapping::LOG);
 505:semester_project.cpp ****             }
 506:semester_project.cpp ****             else if (zMapCutoff == true)
 507:semester_project.cpp ****             {
 508:semester_project.cpp ****                 filterFreq = fmap(zPos, freqLowerLimit, freqUpperLimit, Mapping::LOG);
 509:semester_project.cpp ****             }
 510:semester_project.cpp ****     }
 511:semester_project.cpp ****     else{
 512:semester_project.cpp ****         float invL = freqUpperLimit;
 513:semester_project.cpp ****         float invU = freqLowerLimit;
 514:semester_project.cpp ****         if (xMapCutoff == false && yMapCutoff == false && zMapCutoff == false){
 515:semester_project.cpp ****             filterFreq = fmap(hw.adc.GetMuxFloat(2,1), invL, invU, Mapping::LOG);}
 516:semester_project.cpp ****             else if (xMapCutoff == true)
 517:semester_project.cpp ****             {
 518:semester_project.cpp ****                 filterFreq = fmap(xPos, invL, invU, Mapping::LOG);
 519:semester_project.cpp ****             }
 520:semester_project.cpp ****             else if (yMapCutoff == true)
 521:semester_project.cpp ****             {
 522:semester_project.cpp ****                 filterFreq = fmap(yPos, invL, invU, Mapping::LOG);
 523:semester_project.cpp ****             }
 524:semester_project.cpp ****             else if (zMapCutoff == true)
 525:semester_project.cpp ****             {
 526:semester_project.cpp ****                 filterFreq = fmap(zPos, invL, invU, Mapping::LOG);
 527:semester_project.cpp ****             }
 528:semester_project.cpp **** 
 529:semester_project.cpp ****     }
 530:semester_project.cpp ****     //filterRes = fmap(hw.adc.GetMuxFloat(2,2), 0, 0.9, Mapping::LINEAR);
 531:semester_project.cpp ****     if (xMapFltRes == false && yMapFltRes == false && zMapFltRes == false)
 532:semester_project.cpp ****         filterRes = fmap(hw.adc.GetMuxFloat(2,2), 0, 0.9, Mapping::LINEAR);
 533:semester_project.cpp ****         else if (xMapFltRes == true)
ARM GAS  /var/folders/wr/bk9txnv930v5t7d_4s42nmkm0000gq/T//ccJtZ1lc.s 			page 57


 534:semester_project.cpp ****         {
 535:semester_project.cpp ****             filterRes = fmap(xPos, 0, 0.9f, Mapping::LINEAR);
 536:semester_project.cpp ****         }
 537:semester_project.cpp ****         else if (yMapFltRes == true)
 538:semester_project.cpp ****         {
 539:semester_project.cpp ****             filterRes = fmap(yPos, 0, 0.9f, Mapping::LINEAR);
 540:semester_project.cpp ****         }
 541:semester_project.cpp ****         else if (zMapFltRes == true)
 542:semester_project.cpp ****         {
 543:semester_project.cpp ****             filterRes = fmap(zPos, 0, 0.9f, Mapping::LINEAR);
 544:semester_project.cpp ****         }
 545:semester_project.cpp ****     
 546:semester_project.cpp ****     if (xMapFltAttack == false && yMapFltAttack == false && zMapFltAttack == false)
 547:semester_project.cpp ****         filterAttack = fmap(hw.adc.GetMuxFloat(2,3), 0, 5, Mapping::EXP);
 548:semester_project.cpp ****         else if (xMapFltAttack == true)
 549:semester_project.cpp ****         {
 550:semester_project.cpp ****             filterAttack = fmap(xPos, 0.f, 5.f, Mapping::EXP);
 551:semester_project.cpp ****         }
 552:semester_project.cpp ****         else if (yMapFltAttack == true)
 553:semester_project.cpp ****         {
 554:semester_project.cpp ****             filterAttack = fmap(yPos, 0.f, 5.f, Mapping::EXP);
 555:semester_project.cpp ****         }
 556:semester_project.cpp ****         else if (zMapFltAttack == true)
 557:semester_project.cpp ****         {
 558:semester_project.cpp ****             filterAttack = fmap(zPos, 0.f, 5.f, Mapping::EXP);
 559:semester_project.cpp ****         }
 560:semester_project.cpp **** 
 561:semester_project.cpp ****     if (xMapFltDecay == false && yMapFltDecay == false && zMapFltDecay == false)
 562:semester_project.cpp ****         filterDecay = fmap(hw.adc.GetMuxFloat(2,4), 0.f, 5.f, Mapping::EXP);
 563:semester_project.cpp ****         else if (xMapFltDecay == true)
 564:semester_project.cpp ****         {
 565:semester_project.cpp ****             filterDecay = fmap(xPos, 0.f, 5.f, Mapping::EXP);
 566:semester_project.cpp ****         }
 567:semester_project.cpp ****         else if (yMapFltDecay == true)
 568:semester_project.cpp ****         {
 569:semester_project.cpp ****             filterDecay = fmap(yPos, 0.f, 5.f, Mapping::EXP);
 570:semester_project.cpp ****         }
 571:semester_project.cpp ****         else if (zMapFltDecay == true)
 572:semester_project.cpp ****         {
 573:semester_project.cpp ****             filterDecay = fmap(zPos, 0.f, 5.f, Mapping::EXP);
 574:semester_project.cpp ****         }
 575:semester_project.cpp **** 
 576:semester_project.cpp ****     filterSustain = hw.adc.GetMuxFloat(2,5);
 577:semester_project.cpp ****     filterRelease = fmap(hw.adc.GetMuxFloat(2,6), 0.f, 2.f, Mapping::EXP);
 578:semester_project.cpp **** 
 579:semester_project.cpp ****     if (xMapFltEnv == false && yMapFltEnv == false && zMapFltEnv == false)
 580:semester_project.cpp ****         filterEnvAmount = fmap(hw.adc.GetMuxFloat(2,7), 0, 10000, Mapping::EXP);
 581:semester_project.cpp ****         else if (xMapFltEnv == true)
 582:semester_project.cpp ****         {
 583:semester_project.cpp ****             filterEnvAmount = fmap(xPos, 0, 10000, Mapping::EXP);
 584:semester_project.cpp ****         }
 585:semester_project.cpp ****         else if (yMapFltEnv == true)
 586:semester_project.cpp ****         {
 587:semester_project.cpp ****             filterEnvAmount = fmap(yPos, 0, 10000, Mapping::EXP);
 588:semester_project.cpp ****         }
 589:semester_project.cpp ****         else if (zMapFltEnv == true)
 590:semester_project.cpp ****         {
ARM GAS  /var/folders/wr/bk9txnv930v5t7d_4s42nmkm0000gq/T//ccJtZ1lc.s 			page 58


 591:semester_project.cpp ****             filterEnvAmount = fmap(zPos, 0, 10000, Mapping::EXP);
 592:semester_project.cpp ****         }
 593:semester_project.cpp ****         
 594:semester_project.cpp ****         if (xMapPitch == true)
 595:semester_project.cpp ****         {
 596:semester_project.cpp ****             pitchXYZ = fmap(xPos, pitchLowerLimit, pitchUpperLimit, Mapping::LINEAR);
 597:semester_project.cpp ****         }
 598:semester_project.cpp ****         else if (yMapPitch == true)
 599:semester_project.cpp ****         {
 600:semester_project.cpp ****             pitchXYZ = fmap(yPos, pitchLowerLimit, pitchUpperLimit, Mapping::LINEAR);
 601:semester_project.cpp ****         }
 602:semester_project.cpp ****         else if (zMapPitch == true)
 603:semester_project.cpp ****         {
 604:semester_project.cpp ****             pitchXYZ = fmap(zPos, pitchLowerLimit, pitchUpperLimit, Mapping::LINEAR);
 605:semester_project.cpp ****         }    
 606:semester_project.cpp **** 
 607:semester_project.cpp ****     if (xMapAmp == false && yMapAmp == false && zMapAmp == false)
 608:semester_project.cpp ****         vol =1;
 609:semester_project.cpp ****         else if (xMapAmp == true){
 610:semester_project.cpp ****             vol = xPos;
 611:semester_project.cpp ****         }
 612:semester_project.cpp ****         else if (yMapAmp == true){
 613:semester_project.cpp ****             vol = yPos;
 614:semester_project.cpp ****         }
 615:semester_project.cpp ****         else if (zMapAmp == true){
 616:semester_project.cpp ****             vol = zPos;
 617:semester_project.cpp ****         }
 618:semester_project.cpp **** 
 619:semester_project.cpp ****     //Update LFO
 620:semester_project.cpp ****     lfo.SetAmp(lfoAmp);
 621:semester_project.cpp ****     lfo.SetFreq(lfoFreq);
 622:semester_project.cpp **** 
 623:semester_project.cpp **** 
 624:semester_project.cpp ****     //Update oscillator parameters
 625:semester_project.cpp **** 	voice_handler.SetSync(true);
 626:semester_project.cpp **** 
 627:semester_project.cpp ****     if (lfoMapShape == true)
 628:semester_project.cpp ****         voice_handler.SetWaveshape(waveshape * mod);
 629:semester_project.cpp ****     else{
 630:semester_project.cpp ****         voice_handler.SetWaveshape(waveshape);
 631:semester_project.cpp ****     }
 632:semester_project.cpp ****     if (lfoMapSync == true){
 633:semester_project.cpp **** 	    voice_handler.SetSyncFreq(syncFreq * ((mod*2.f)+ 3));}
 634:semester_project.cpp ****     else{
 635:semester_project.cpp ****         voice_handler.SetSyncFreq(syncFreq * 3);
 636:semester_project.cpp ****     }
 637:semester_project.cpp ****     if (lfoMapPW == true){
 638:semester_project.cpp **** 	    voice_handler.SetPW(mod*PW);}
 639:semester_project.cpp ****     else{
 640:semester_project.cpp ****         voice_handler.SetPW(PW);
 641:semester_project.cpp ****     }
 642:semester_project.cpp **** 
 643:semester_project.cpp **** 
 644:semester_project.cpp ****     if (lfoMapAmp == true){
 645:semester_project.cpp **** 	    vol = vol * mod;}
 646:semester_project.cpp ****     else{
 647:semester_project.cpp ****     }
ARM GAS  /var/folders/wr/bk9txnv930v5t7d_4s42nmkm0000gq/T//ccJtZ1lc.s 			page 59


 648:semester_project.cpp **** 
 649:semester_project.cpp ****    
 650:semester_project.cpp **** 
 651:semester_project.cpp ****     //Update overdriveParameters
 652:semester_project.cpp ****     if(xMapOverdrive == true){
 653:semester_project.cpp ****         overdriveDrive = xPos*100.f;
 654:semester_project.cpp ****     }
 655:semester_project.cpp ****     else if(yMapOverdrive == true){
 656:semester_project.cpp ****         overdriveDrive = yPos*100.f;
 657:semester_project.cpp ****     }
 658:semester_project.cpp ****     else if(zMapOverdrive == true){
 659:semester_project.cpp ****         overdriveDrive = zPos*100.f;
 660:semester_project.cpp ****     }
 661:semester_project.cpp ****     od.SetDrive(overdriveDrive/100.f);
 662:semester_project.cpp **** 
 663:semester_project.cpp ****     //Update reverb parameters
 664:semester_project.cpp ****     if(xMapRevFeedback == true){
 665:semester_project.cpp ****         reverbFeedback = xPos*100.f;
 666:semester_project.cpp ****     }
 667:semester_project.cpp ****     else if(yMapRevFeedback == true){
 668:semester_project.cpp ****         reverbFeedback = yPos*100.f;
 669:semester_project.cpp ****     }
 670:semester_project.cpp ****     else if(zMapRevFeedback == true){
 671:semester_project.cpp ****         reverbFeedback = zPos*100.f;
 672:semester_project.cpp ****     }
 673:semester_project.cpp ****     rev.SetFeedback(reverbFeedback/100.f);
 674:semester_project.cpp ****     rev.SetLpFreq(reverbLp);
 675:semester_project.cpp **** 
 676:semester_project.cpp ****     //Update chorus parameters
 677:semester_project.cpp ****     chorus.SetLfoDepth(chorusLfoDepth);
 678:semester_project.cpp ****     chorus.SetLfoFreq(chorusLfoFreq);
 679:semester_project.cpp ****     chorus.SetDelayMs(chorusDelayMs);
 680:semester_project.cpp ****     chorus.SetFeedback(chorusFeedback/100.f);
 681:semester_project.cpp **** }
 682:semester_project.cpp **** 
 683:semester_project.cpp **** void GenerateUiEvents()
 684:semester_project.cpp **** {
 685:semester_project.cpp ****     if(encoder.RisingEdge())
 686:semester_project.cpp ****         eventQueue.AddButtonPressed(0, 1);
 687:semester_project.cpp **** 
 688:semester_project.cpp ****     if(encoder.FallingEdge())
 689:semester_project.cpp ****         eventQueue.AddButtonReleased(0);
 690:semester_project.cpp **** 
 691:semester_project.cpp ****     if(backButton.RisingEdge())
 692:semester_project.cpp ****         eventQueue.AddButtonPressed(1,1);
 693:semester_project.cpp **** 
 694:semester_project.cpp ****     if(backButton.FallingEdge())
 695:semester_project.cpp ****         eventQueue.AddButtonReleased(1);
 696:semester_project.cpp **** 
 697:semester_project.cpp ****     if(functionButton.RisingEdge())
 698:semester_project.cpp ****         eventQueue.AddButtonPressed(2,1);
 699:semester_project.cpp **** 
 700:semester_project.cpp ****     if(functionButton.FallingEdge())
 701:semester_project.cpp ****         eventQueue.AddButtonReleased(2);
 702:semester_project.cpp ****     
 703:semester_project.cpp **** 
 704:semester_project.cpp ****     const auto increments = encoder.Increment();
ARM GAS  /var/folders/wr/bk9txnv930v5t7d_4s42nmkm0000gq/T//ccJtZ1lc.s 			page 60


 705:semester_project.cpp ****     if(increments != 0)
 706:semester_project.cpp ****         eventQueue.AddEncoderTurned(0, increments, 12);
 707:semester_project.cpp **** }
 708:semester_project.cpp **** 
 709:semester_project.cpp **** void AudioCallback(AudioHandle::InterleavingInputBuffer  in,
 710:semester_project.cpp ****                    AudioHandle::InterleavingOutputBuffer out,
 711:semester_project.cpp ****                    size_t                                size)
 712:semester_project.cpp **** {
 713:semester_project.cpp ****     float odOut, choL, choR, outL, outR;
 714:semester_project.cpp ****     float sum = 0.f;
 715:semester_project.cpp ****     UpdateButtons();
 716:semester_project.cpp ****     UpdateADC();
 717:semester_project.cpp ****     GenerateUiEvents();
 718:semester_project.cpp ****     int lfoShape = DSY_CLAMP(lfoShapeValue.GetIndex(), 0, 5);
 719:semester_project.cpp ****     lfo.SetWaveform(lfoShape);
 720:semester_project.cpp ****     if (filterEnvAmount < 5.f){
 721:semester_project.cpp ****         if (lfoMapCutoff == true){
 722:semester_project.cpp ****             voice_handler.SetFilterCutoff(filterFreq+(mod*500.f));}
 723:semester_project.cpp ****         else{
 724:semester_project.cpp ****             voice_handler.SetFilterCutoff(filterFreq);
 725:semester_project.cpp ****             }
 726:semester_project.cpp ****         }
 727:semester_project.cpp ****         else{
 728:semester_project.cpp ****             if (lfoMapCutoff == true){
 729:semester_project.cpp ****                 voice_handler.SetFilterCutoff(filterFreq+(mod*500.f) + (filterEnvAmount * fltEnv));
 730:semester_project.cpp ****             else{
 731:semester_project.cpp ****                 voice_handler.SetFilterCutoff(filterFreq + (filterEnvAmount * fltEnv));
 732:semester_project.cpp ****             }
 733:semester_project.cpp ****         }
 734:semester_project.cpp ****             voice_handler.SetFilterRes(filterRes);
 735:semester_project.cpp ****     
 736:semester_project.cpp ****     for(size_t i = 0; i < size; i += 2)
 737:semester_project.cpp ****     { 
 738:semester_project.cpp ****         mod = lfo.Process();
 739:semester_project.cpp ****         sum        = 0.f;
 740:semester_project.cpp ****         sum        = flt.Process(voice_handler.Process() * 0.5f) * vol;
 741:semester_project.cpp ****        odOut = (overdriveDryWet/100.f) * od.Process(sum) + (1.f - (overdriveDryWet/100.f))*sum;
 742:semester_project.cpp **** 
 743:semester_project.cpp ****         chorus.Process(odOut);
 744:semester_project.cpp ****         choL = (chorusDryWet/100.f) * chorus.GetLeft() + (1.f - (chorusDryWet/100.f)) * odOut ;
 745:semester_project.cpp ****         choR = (chorusDryWet/100.f) * chorus.GetRight() + (1.f - (chorusDryWet/100.f)) * odOut ;
 746:semester_project.cpp **** 
 747:semester_project.cpp ****         rev.Process(choL, choR, &outL, &outR);
 748:semester_project.cpp ****         outL = (reverbDryWet/100.f) * outL + (1.f - (reverbDryWet/100.f)) * choL;
 749:semester_project.cpp ****         outR = (reverbDryWet/100.f) * outR + (1.f - (reverbDryWet/100.f)) * choR;
 750:semester_project.cpp **** 
 751:semester_project.cpp ****         out[i]     = outL * (masterVolume/100.f);
 752:semester_project.cpp ****         out[i + 1] = outR * (masterVolume/100.f);
 753:semester_project.cpp ****     }
 754:semester_project.cpp **** }
 755:semester_project.cpp **** 
 756:semester_project.cpp **** 
 757:semester_project.cpp **** 
 758:semester_project.cpp **** // Typical Switch case for Message Type.
 759:semester_project.cpp **** void HandleMidiMessage(MidiEvent m)
 760:semester_project.cpp **** {
 761:semester_project.cpp ****     switch(m.type)
ARM GAS  /var/folders/wr/bk9txnv930v5t7d_4s42nmkm0000gq/T//ccJtZ1lc.s 			page 61


 762:semester_project.cpp ****     {
 763:semester_project.cpp ****         case NoteOn:
 764:semester_project.cpp ****         {
 765:semester_project.cpp ****             NoteOnEvent p = m.AsNoteOn();
 766:semester_project.cpp ****             // Note Off can come in as Note On w/ 0 Velocity
 767:semester_project.cpp ****             if(p.velocity == 0.f)
 768:semester_project.cpp ****             {
 769:semester_project.cpp ****                 voice_handler.OnNoteOff(p.note, p.velocity);
 770:semester_project.cpp ****             }
 771:semester_project.cpp ****             else
 772:semester_project.cpp ****             {
 773:semester_project.cpp ****                 voice_handler.OnNoteOn(p.note, p.velocity);
 774:semester_project.cpp ****             }
 775:semester_project.cpp ****         }
 776:semester_project.cpp ****         break;
 777:semester_project.cpp ****         case NoteOff:
 778:semester_project.cpp ****         {
 779:semester_project.cpp ****             NoteOnEvent p = m.AsNoteOn();
 780:semester_project.cpp ****             voice_handler.OnNoteOff(p.note, p.velocity);
 781:semester_project.cpp ****         }
 782:semester_project.cpp ****         break;
 783:semester_project.cpp ****         case ControlChange:
 784:semester_project.cpp ****         {
 785:semester_project.cpp ****             ControlChangeEvent p = m.AsControlChange();
 786:semester_project.cpp ****             switch(p.control_number)
 787:semester_project.cpp ****             {
 788:semester_project.cpp ****                 //sustain pedal cc is 64
 789:semester_project.cpp ****                 case 64:
 790:semester_project.cpp ****                     if((float)p.value == 127){
 791:semester_project.cpp ****                         sustainNote = true;
 792:semester_project.cpp ****                     }
 793:semester_project.cpp ****                     else{
 794:semester_project.cpp ****                         sustainNote = false;
 795:semester_project.cpp ****                         voice_handler.FreeAllVoices();
 796:semester_project.cpp ****                     }
 797:semester_project.cpp ****                     break;
 798:semester_project.cpp ****                 default: break;
 799:semester_project.cpp ****             }
 800:semester_project.cpp ****             break;
 801:semester_project.cpp ****         }       
 802:semester_project.cpp ****         default: break;
 803:semester_project.cpp ****     }
 804:semester_project.cpp **** }
 805:semester_project.cpp **** 
 806:semester_project.cpp **** //Initialise the OLED display
 807:semester_project.cpp **** void InitDisplay()
 808:semester_project.cpp **** {
 809:semester_project.cpp ****     OledDisplay<SSD130x4WireSpi128x64Driver>::Config display_config;
 810:semester_project.cpp **** 
 811:semester_project.cpp ****     display_config.driver_config.transport_config.pin_config.dc
 812:semester_project.cpp ****         = hw.GetPin(PIN_OLED_DC);
 813:semester_project.cpp ****     display_config.driver_config.transport_config.pin_config.reset
 814:semester_project.cpp ****         = hw.GetPin(PIN_OLED_RESET);
 815:semester_project.cpp **** 
 816:semester_project.cpp ****     display.Init(display_config);
 817:semester_project.cpp **** }
 818:semester_project.cpp **** 
ARM GAS  /var/folders/wr/bk9txnv930v5t7d_4s42nmkm0000gq/T//ccJtZ1lc.s 			page 62


 819:semester_project.cpp **** 
 820:semester_project.cpp **** 
 821:semester_project.cpp **** using OledDisplayType = decltype(display);
 822:semester_project.cpp **** 
 823:semester_project.cpp **** void FlushCanvas(const daisy::UiCanvasDescriptor& canvasDescriptor)
 824:semester_project.cpp **** {
 825:semester_project.cpp ****     if(canvasDescriptor.id_ == 0)
 826:semester_project.cpp ****     {
 827:semester_project.cpp ****         OledDisplayType& display
 828:semester_project.cpp ****             = *((OledDisplayType*)(canvasDescriptor.handle_));
 829:semester_project.cpp ****         display.Update();
 830:semester_project.cpp ****     }
 831:semester_project.cpp **** }
 832:semester_project.cpp **** void ClearCanvas(const daisy::UiCanvasDescriptor& canvasDescriptor)
 833:semester_project.cpp **** {
 617              		.loc 24 833 1 is_stmt 1 view -0
 618              		.cfi_startproc
 619              		@ args = 0, pretend = 0, frame = 0
 620              		@ frame_needed = 0, uses_anonymous_args = 0
 621              		@ link register save eliminated.
 834:semester_project.cpp ****     if(canvasDescriptor.id_ == 0)
 622              		.loc 24 834 5 view .LVU79
 623              	.LBB1785:
 624 0000 0178     		ldrb	r1, [r0]	@ zero_extendqisi2
 625 0002 51B9     		cbnz	r1, .L26
 626 0004 4068     		ldr	r0, [r0, #4]
 627              	.LVL27:
 628              		.loc 24 834 5 is_stmt 0 view .LVU80
 629              	.LBE1785:
 630              	.LBB1786:
 631              	.LBI1786:
 832:semester_project.cpp **** {
 632              		.loc 24 832 6 is_stmt 1 view .LVU81
 633              	.LBB1787:
 835:semester_project.cpp ****     {
 836:semester_project.cpp ****         OledDisplayType& display
 634              		.loc 24 836 9 view .LVU82
 837:semester_project.cpp ****             = *((OledDisplayType*)(canvasDescriptor.handle_));
 838:semester_project.cpp ****         display.Fill(false);
 635              		.loc 24 838 9 view .LVU83
 636 0006 064A     		ldr	r2, .L27
 637              		.loc 24 838 27 is_stmt 0 view .LVU84
 638 0008 0368     		ldr	r3, [r0]
 639 000a 1B69     		ldr	r3, [r3, #16]
 640 000c 9342     		cmp	r3, r2
 641 000e 05D1     		bne	.L25
 642              	.LBB1788:
 643              	.LBB1789:
 644              	.LBB1790:
 645              		.loc 17 253 24 view .LVU85
 646 0010 4FF48062 		mov	r2, #1024
 647 0014 1430     		adds	r0, r0, #20
 648              	.LVL28:
 649              		.loc 17 253 24 view .LVU86
 650 0016 FFF7FEBF 		b	memset
 651              	.LVL29:
 652              	.L26:
ARM GAS  /var/folders/wr/bk9txnv930v5t7d_4s42nmkm0000gq/T//ccJtZ1lc.s 			page 63


 653              		.loc 17 253 24 view .LVU87
 654              	.LBE1790:
 655              	.LBE1789:
 656              	.LBE1788:
 657              	.LBE1787:
 658              	.LBE1786:
 839:semester_project.cpp ****     }
 840:semester_project.cpp **** }
 659              		.loc 24 840 1 view .LVU88
 660 001a 7047     		bx	lr
 661              	.LVL30:
 662              	.L25:
 663              	.LBB1792:
 664              	.LBB1791:
 838:semester_project.cpp ****     }
 665              		.loc 24 838 21 view .LVU89
 666 001c 1847     		bx	r3	@ indirect register sibling call
 667              	.LVL31:
 668              	.L28:
 838:semester_project.cpp ****     }
 669              		.loc 24 838 21 view .LVU90
 670 001e 00BF     		.align	2
 671              	.L27:
 672 0020 00000000 		.word	_ZN5daisy11OledDisplayINS_13SSD130xDriverILj128ELj64ENS_24SSD130x4WireSpiTransportEEEE4FillE
 673              	.LBE1791:
 674              	.LBE1792:
 675              		.cfi_endproc
 676              	.LFE4373:
 678              		.section	.text._ZN5daisy11OledDisplayINS_13SSD130xDriverILj128ELj64ENS_24SSD130x4WireSpiTransportE
 679              		.align	1
 680              		.p2align 2,,3
 681              		.weak	_ZN5daisy11OledDisplayINS_13SSD130xDriverILj128ELj64ENS_24SSD130x4WireSpiTransportEEEE6Updat
 682              		.syntax unified
 683              		.thumb
 684              		.thumb_func
 685              		.fpu fpv5-d16
 687              	_ZN5daisy11OledDisplayINS_13SSD130xDriverILj128ELj64ENS_24SSD130x4WireSpiTransportEEEE6UpdateEv:
 688              	.LVL32:
 689              	.LFB4708:
  34:../../libdaisy//src/hid/disp/oled_display.h **** 
  35:../../libdaisy//src/hid/disp/oled_display.h ****     /**
  36:../../libdaisy//src/hid/disp/oled_display.h ****     Sets the pixel at the specified coordinate to be on/off.
  37:../../libdaisy//src/hid/disp/oled_display.h ****     \param x   x Coordinate
  38:../../libdaisy//src/hid/disp/oled_display.h ****     \param y   y coordinate
  39:../../libdaisy//src/hid/disp/oled_display.h ****     \param on  on or off
  40:../../libdaisy//src/hid/disp/oled_display.h ****     */
  41:../../libdaisy//src/hid/disp/oled_display.h ****     void DrawPixel(uint_fast8_t x, uint_fast8_t y, bool on) override
  42:../../libdaisy//src/hid/disp/oled_display.h ****     {
  43:../../libdaisy//src/hid/disp/oled_display.h ****         driver_.DrawPixel(x, y, on);
  44:../../libdaisy//src/hid/disp/oled_display.h ****     }
  45:../../libdaisy//src/hid/disp/oled_display.h **** 
  46:../../libdaisy//src/hid/disp/oled_display.h ****     /** 
  47:../../libdaisy//src/hid/disp/oled_display.h ****     Writes the current display buffer to the OLED device using SPI or I2C depending on 
  48:../../libdaisy//src/hid/disp/oled_display.h ****     how the object was initialized.
  49:../../libdaisy//src/hid/disp/oled_display.h ****     */
  50:../../libdaisy//src/hid/disp/oled_display.h ****     void Update() override { driver_.Update(); }
 690              		.loc 16 50 10 is_stmt 1 view -0
ARM GAS  /var/folders/wr/bk9txnv930v5t7d_4s42nmkm0000gq/T//ccJtZ1lc.s 			page 64


 691              		.cfi_startproc
 692              		@ args = 0, pretend = 0, frame = 8
 693              		@ frame_needed = 0, uses_anonymous_args = 0
 694              	.LBB1803:
 695              	.LBI1803:
 254:../../libdaisy//src/dev/oled_ssd130x.h ****         }
 255:../../libdaisy//src/dev/oled_ssd130x.h ****     };
 256:../../libdaisy//src/dev/oled_ssd130x.h **** 
 257:../../libdaisy//src/dev/oled_ssd130x.h ****     /**
 258:../../libdaisy//src/dev/oled_ssd130x.h ****      * Update the display 
 259:../../libdaisy//src/dev/oled_ssd130x.h ****     */
 260:../../libdaisy//src/dev/oled_ssd130x.h ****     void Update()
 696              		.loc 17 260 10 view .LVU92
 697              	.LBB1804:
 261:../../libdaisy//src/dev/oled_ssd130x.h ****     {
 262:../../libdaisy//src/dev/oled_ssd130x.h ****         uint8_t i;
 263:../../libdaisy//src/dev/oled_ssd130x.h ****         uint8_t high_column_addr;
 264:../../libdaisy//src/dev/oled_ssd130x.h ****         switch(height)
 265:../../libdaisy//src/dev/oled_ssd130x.h ****         {
 266:../../libdaisy//src/dev/oled_ssd130x.h ****             case 32: high_column_addr = 0x12; break;
 267:../../libdaisy//src/dev/oled_ssd130x.h **** 
 268:../../libdaisy//src/dev/oled_ssd130x.h ****             default: high_column_addr = 0x10; break;
 269:../../libdaisy//src/dev/oled_ssd130x.h ****         }
 270:../../libdaisy//src/dev/oled_ssd130x.h ****         for(i = 0; i < (height / 8); i++)
 698              		.loc 17 270 22 view .LVU93
 699              	.LBE1804:
 700              	.LBE1803:
 701              		.loc 16 50 10 is_stmt 0 view .LVU94
 702 0000 2DE9F041 		push	{r4, r5, r6, r7, r8, lr}
 703              		.cfi_def_cfa_offset 24
 704              		.cfi_offset 4, -24
 705              		.cfi_offset 5, -20
 706              		.cfi_offset 6, -16
 707              		.cfi_offset 7, -12
 708              		.cfi_offset 8, -8
 709              		.cfi_offset 14, -4
 710              	.LBB1826:
 711              	.LBB1824:
 712              	.LBB1805:
 713              	.LBB1806:
 112:../../libdaisy//src/dev/oled_ssd130x.h ****     };
 714              		.loc 17 112 30 view .LVU95
 715 0004 B024     		movs	r4, #176
 716              	.LBE1806:
 717              	.LBE1805:
 718              	.LBE1824:
 719              	.LBE1826:
 720              		.loc 16 50 10 view .LVU96
 721 0006 82B0     		sub	sp, sp, #8
 722              		.cfi_def_cfa_offset 32
 723              	.LBB1827:
 724              	.LBB1825:
 725              	.LBB1811:
 726              	.LBB1807:
 111:../../libdaisy//src/dev/oled_ssd130x.h ****         spi_.BlockingTransmit(&cmd, 1);
 727              		.loc 17 111 24 view .LVU97
 728 0008 00F10806 		add	r6, r0, #8
ARM GAS  /var/folders/wr/bk9txnv930v5t7d_4s42nmkm0000gq/T//ccJtZ1lc.s 			page 65


 729 000c 00F11005 		add	r5, r0, #16
 730 0010 00F11408 		add	r8, r0, #20
 731              	.LVL33:
 732              	.L30:
 111:../../libdaisy//src/dev/oled_ssd130x.h ****         spi_.BlockingTransmit(&cmd, 1);
 733              		.loc 17 111 24 view .LVU98
 734 0014 0027     		movs	r7, #0
 111:../../libdaisy//src/dev/oled_ssd130x.h ****         spi_.BlockingTransmit(&cmd, 1);
 735              		.loc 17 111 23 view .LVU99
 736 0016 2846     		mov	r0, r5
 737 0018 8DF80740 		strb	r4, [sp, #7]
 738              	.LVL34:
